

Microchip MPLAB XC8 Assembler V2.31 build 20201012212115 
                                                                                               Tue Jun 08 02:16:55 2021

Microchip MPLAB XC8 C Compiler v2.31 (Free license) build 20201012212115 Og1 
     1                           	processor	18F4550
     2                           	fnconf	rparam,??,?,0
     3                           	pagewidth 120
     4                           	opt	flic
     5                           	psect	idataCOMRAM,global,class=CODE,delta=1,noexec
     6                           	psect	idataBANK0,global,class=CODE,delta=1,noexec
     7                           	psect	mediumconst,global,reloc=2,class=MEDIUMCONST,delta=1,noexec
     8                           	psect	nvBANK0,global,class=BANK0,space=1,delta=1,lowdata,noexec
     9                           	psect	cinit,global,reloc=2,class=CODE,delta=1
    10                           	psect	bssCOMRAM,global,class=COMRAM,space=1,delta=1,lowdata,noexec
    11                           	psect	dataCOMRAM,global,class=COMRAM,space=1,delta=1,lowdata,noexec
    12                           	psect	bssBANK0,global,class=BANK0,space=1,delta=1,lowdata,noexec
    13                           	psect	dataBANK0,global,class=BANK0,space=1,delta=1,lowdata,noexec
    14                           	psect	cstackCOMRAM,global,class=COMRAM,space=1,delta=1,lowdata,noexec
    15                           	psect	text0,global,reloc=2,class=CODE,delta=1
    16                           	psect	text1,global,reloc=2,class=CODE,delta=1
    17                           	psect	text2,global,reloc=2,class=CODE,delta=1
    18                           	psect	text3,global,reloc=2,class=CODE,delta=1
    19                           	psect	text4,global,reloc=2,class=CODE,delta=1
    20                           	psect	text5,global,reloc=2,class=CODE,delta=1,group=1
    21                           	psect	text6,global,reloc=2,class=CODE,delta=1,group=1
    22                           	psect	text7,global,reloc=2,class=CODE,delta=1
    23                           	psect	text8,global,reloc=2,class=CODE,delta=1
    24                           	psect	text9,global,reloc=2,class=CODE,delta=1
    25                           	psect	text10,global,reloc=2,class=CODE,delta=1,group=1
    26                           	psect	text11,global,reloc=2,class=CODE,delta=1
    27                           	psect	text12,global,reloc=2,class=CODE,delta=1
    28                           	psect	text13,global,reloc=2,class=CODE,delta=1
    29                           	psect	text14,global,reloc=2,class=CODE,delta=1,group=1
    30                           	psect	text15,global,reloc=2,class=CODE,delta=1
    31                           	psect	text16,global,reloc=2,class=CODE,delta=1
    32                           	psect	text17,global,reloc=2,class=CODE,delta=1
    33                           	psect	text18,global,reloc=2,class=CODE,delta=1
    34                           	psect	text19,global,reloc=2,class=CODE,delta=1
    35                           	psect	text20,global,reloc=2,class=CODE,delta=1
    36                           	psect	text21,global,reloc=2,class=CODE,delta=1
    37                           	psect	text22,global,reloc=2,class=CODE,delta=1
    38                           	psect	text23,global,reloc=2,class=CODE,delta=1
    39                           	psect	text24,global,reloc=2,class=CODE,delta=1
    40                           	psect	text25,global,reloc=2,class=CODE,delta=1
    41                           	psect	text26,global,reloc=2,class=CODE,delta=1
    42                           	psect	intsave_regs,global,class=BIGRAM,space=1,delta=1,noexec
    43                           	psect	rparam,global,class=COMRAM,space=1,delta=1,noexec
    44                           	psect	idloc,global,abs,ovrld,class=IDLOC,space=5,delta=1,noexec
    45                           	psect	config,global,abs,ovrld,class=CONFIG,space=4,delta=1,noexec
    46  0000                     
    47                           ; Version 2.20
    48                           ; Generated 12/02/2020 GMT
    49                           ; 
    50                           ; Copyright © 2020, Microchip Technology Inc. and its subsidiaries ("Microchip")
    51                           ; All rights reserved.
    52                           ; 
    53                           ; This software is developed by Microchip Technology Inc. and its subsidiaries ("Microch
      +                          ip").
    54                           ; 
    55                           ; Redistribution and use in source and binary forms, with or without modification, are
    56                           ; permitted provided that the following conditions are met:
    57                           ; 
    58                           ;     1. Redistributions of source code must retain the above copyright notice, this lis
      +                          t of
    59                           ;        conditions and the following disclaimer.
    60                           ; 
    61                           ;     2. Redistributions in binary form must reproduce the above copyright notice, this 
      +                          list
    62                           ;        of conditions and the following disclaimer in the documentation and/or other
    63                           ;        materials provided with the distribution.
    64                           ; 
    65                           ;     3. Microchip's name may not be used to endorse or promote products derived from th
      +                          is
    66                           ;        software without specific prior written permission.
    67                           ; 
    68                           ; THIS SOFTWARE IS PROVIDED BY MICROCHIP "AS IS" AND ANY EXPRESS OR IMPLIED WARRANTIES,
    69                           ; INCLUDING, BUT NOT LIMITED TO, THE IMPLIED WARRANTIES OF MERCHANTABILITY AND FITNESS F
      +                          OR
    70                           ; PURPOSE ARE DISCLAIMED.  IN NO EVENT SHALL MICROCHIP BE LIABLE FOR ANY DIRECT, INDIREC
      +                          T,
    71                           ; INCIDENTAL, SPECIAL, EXEMPLARY, OR CONSEQUENTIAL DAMAGES (INCLUDING BUT NOT LIMITED TO
    72                           ; PROCUREMENT OF SUBSTITUTE GOODS OR SERVICES; LOSS OF USE, DATA OR PROFITS; OR BUSINESS
    73                           ; INTERRUPTION) HOWSOEVER CAUSED AND ON ANY THEORY OF LIABILITY, WHETHER IN CONTRACT, ST
      +                          RICT
    74                           ; LIABILITY, OR TORT (INCLUDING NEGLIGENCE OR OTHERWISE) ARISING IN ANY WAY OUT OF THE U
      +                          SE OF
    75                           ; THIS SOFTWARE, EVEN IF ADVISED OF THE POSSIBILITY OF SUCH DAMAGE.
    76                           ; 
    77                           ; 
    78                           ; Code-generator required, PIC18F4550 Definitions
    79                           ; 
    80                           ; SFR Addresses
    81  0000                     
    82                           	psect	idataCOMRAM
    83  0064AF                     __pidataCOMRAM:
    84                           	callstack 0
    85                           
    86                           ;initializer for _pA
    87  0064AF  02                 	db	2
    88                           
    89                           	psect	idataBANK0
    90  00655E                     __pidataBANK0:
    91                           	callstack 0
    92                           
    93                           ;initializer for _comb
    94  00655E  31                 	db	49
    95  00655F  32                 	db	50
    96  006560  33                 	db	51
    97  006561  41                 	db	65
    98  006562  34                 	db	52
    99  006563  35                 	db	53
   100  006564  36                 	db	54
   101  006565  42                 	db	66
   102  006566  37                 	db	55
   103  006567  38                 	db	56
   104  006568  39                 	db	57
   105  006569  43                 	db	67
   106  00656A  2A                 	db	42
   107  00656B  30                 	db	48
   108  00656C  23                 	db	35
   109  00656D  44                 	db	68
   110                           
   111                           ;initializer for _contChar
   112  00656E  0001               	dw	1
   113                           
   114                           ;initializer for _nC
   115  006570  0004               	dw	4
   116                           
   117                           ;initializer for _sY
   118  006572  0001               	dw	1
   119                           
   120                           ;initializer for _sX
   121  006574  0028               	dw	40
   122                           
   123                           ;initializer for _prod
   124  006576  41                 	db	65
   125  006577  44                 	db	68
   126  006578  43                 	db	67
   127  006579  42                 	db	66
   128  00657A  35                 	db	53
   129  00657B  39                 	db	57
   130  00657C  37                 	db	55
   131  00657D  43                 	db	67
   132  00657E  20                 	db	32
   133  00657F  20                 	db	32
   134  006580  20                 	db	32
   135  006581  31                 	db	49
   136                           
   137                           	psect	mediumconst
   138  00797E                     __pmediumconst:
   139                           	callstack 0
   140  00797E  00                 	db	0
   141  00797F                     _LogoBitMap:
   142                           	callstack 0
   143  00797F  00                 	db	0
   144  007980  00                 	db	0
   145  007981  00                 	db	0
   146  007982  00                 	db	0
   147  007983  00                 	db	0
   148  007984  00                 	db	0
   149  007985  00                 	db	0
   150  007986  00                 	db	0
   151  007987  00                 	db	0
   152  007988  00                 	db	0
   153  007989  00                 	db	0
   154  00798A  00                 	db	0
   155  00798B  00                 	db	0
   156  00798C  00                 	db	0
   157  00798D  00                 	db	0
   158  00798E  00                 	db	0
   159  00798F  00                 	db	0
   160  007990  00                 	db	0
   161  007991  00                 	db	0
   162  007992  00                 	db	0
   163  007993  00                 	db	0
   164  007994  00                 	db	0
   165  007995  00                 	db	0
   166  007996  80                 	db	128
   167  007997  C0                 	db	192
   168  007998  E0                 	db	224
   169  007999  E0                 	db	224
   170  00799A  F0                 	db	240
   171  00799B  F0                 	db	240
   172  00799C  F0                 	db	240
   173  00799D  F8                 	db	248
   174  00799E  F8                 	db	248
   175  00799F  FC                 	db	252
   176  0079A0  FC                 	db	252
   177  0079A1  FC                 	db	252
   178  0079A2  FC                 	db	252
   179  0079A3  FE                 	db	254
   180  0079A4  FE                 	db	254
   181  0079A5  FE                 	db	254
   182  0079A6  FE                 	db	254
   183  0079A7  FE                 	db	254
   184  0079A8  FE                 	db	254
   185  0079A9  FE                 	db	254
   186  0079AA  FE                 	db	254
   187  0079AB  FE                 	db	254
   188  0079AC  FE                 	db	254
   189  0079AD  7E                 	db	126
   190  0079AE  7E                 	db	126
   191  0079AF  7E                 	db	126
   192  0079B0  7C                 	db	124
   193  0079B1  FC                 	db	252
   194  0079B2  FC                 	db	252
   195  0079B3  FC                 	db	252
   196  0079B4  F8                 	db	248
   197  0079B5  F8                 	db	248
   198  0079B6  F0                 	db	240
   199  0079B7  F0                 	db	240
   200  0079B8  F0                 	db	240
   201  0079B9  E0                 	db	224
   202  0079BA  C0                 	db	192
   203  0079BB  C0                 	db	192
   204  0079BC  80                 	db	128
   205  0079BD  00                 	db	0
   206  0079BE  00                 	db	0
   207  0079BF  80                 	db	128
   208  0079C0  C0                 	db	192
   209  0079C1  E0                 	db	224
   210  0079C2  E0                 	db	224
   211  0079C3  F0                 	db	240
   212  0079C4  F0                 	db	240
   213  0079C5  F8                 	db	248
   214  0079C6  F8                 	db	248
   215  0079C7  FC                 	db	252
   216  0079C8  FC                 	db	252
   217  0079C9  FC                 	db	252
   218  0079CA  FC                 	db	252
   219  0079CB  FE                 	db	254
   220  0079CC  FE                 	db	254
   221  0079CD  FE                 	db	254
   222  0079CE  FE                 	db	254
   223  0079CF  FE                 	db	254
   224  0079D0  FE                 	db	254
   225  0079D1  FE                 	db	254
   226  0079D2  FE                 	db	254
   227  0079D3  FE                 	db	254
   228  0079D4  FE                 	db	254
   229  0079D5  FE                 	db	254
   230  0079D6  FE                 	db	254
   231  0079D7  FE                 	db	254
   232  0079D8  FE                 	db	254
   233  0079D9  FE                 	db	254
   234  0079DA  FE                 	db	254
   235  0079DB  FC                 	db	252
   236  0079DC  FC                 	db	252
   237  0079DD  FC                 	db	252
   238  0079DE  F8                 	db	248
   239  0079DF  F8                 	db	248
   240  0079E0  F8                 	db	248
   241  0079E1  F0                 	db	240
   242  0079E2  F0                 	db	240
   243  0079E3  E0                 	db	224
   244  0079E4  E0                 	db	224
   245  0079E5  C0                 	db	192
   246  0079E6  80                 	db	128
   247  0079E7  00                 	db	0
   248  0079E8  00                 	db	0
   249  0079E9  00                 	db	0
   250  0079EA  00                 	db	0
   251  0079EB  00                 	db	0
   252  0079EC  00                 	db	0
   253  0079ED  00                 	db	0
   254  0079EE  00                 	db	0
   255  0079EF  00                 	db	0
   256  0079F0  00                 	db	0
   257  0079F1  00                 	db	0
   258  0079F2  00                 	db	0
   259  0079F3  00                 	db	0
   260  0079F4  00                 	db	0
   261  0079F5  00                 	db	0
   262  0079F6  00                 	db	0
   263  0079F7  00                 	db	0
   264  0079F8  00                 	db	0
   265  0079F9  00                 	db	0
   266  0079FA  00                 	db	0
   267  0079FB  00                 	db	0
   268  0079FC  00                 	db	0
   269  0079FD  00                 	db	0
   270  0079FE  00                 	db	0
   271  0079FF  00                 	db	0
   272  007A00  00                 	db	0
   273  007A01  00                 	db	0
   274  007A02  00                 	db	0
   275  007A03  00                 	db	0
   276  007A04  00                 	db	0
   277  007A05  00                 	db	0
   278  007A06  00                 	db	0
   279  007A07  00                 	db	0
   280  007A08  00                 	db	0
   281  007A09  00                 	db	0
   282  007A0A  00                 	db	0
   283  007A0B  00                 	db	0
   284  007A0C  00                 	db	0
   285  007A0D  00                 	db	0
   286  007A0E  00                 	db	0
   287  007A0F  C0                 	db	192
   288  007A10  E0                 	db	224
   289  007A11  F0                 	db	240
   290  007A12  F8                 	db	248
   291  007A13  FE                 	db	254
   292  007A14  FF                 	db	255
   293  007A15  FF                 	db	255
   294  007A16  FF                 	db	255
   295  007A17  FF                 	db	255
   296  007A18  FF                 	db	255
   297  007A19  FF                 	db	255
   298  007A1A  FF                 	db	255
   299  007A1B  FF                 	db	255
   300  007A1C  FF                 	db	255
   301  007A1D  FF                 	db	255
   302  007A1E  FF                 	db	255
   303  007A1F  FF                 	db	255
   304  007A20  FF                 	db	255
   305  007A21  3F                 	db	63
   306  007A22  1F                 	db	31
   307  007A23  0F                 	db	15
   308  007A24  07                 	db	7
   309  007A25  03                 	db	3
   310  007A26  81                 	db	129
   311  007A27  C1                 	db	193
   312  007A28  E0                 	db	224
   313  007A29  E0                 	db	224
   314  007A2A  F0                 	db	240
   315  007A2B  F0                 	db	240
   316  007A2C  F0                 	db	240
   317  007A2D  F8                 	db	248
   318  007A2E  F8                 	db	248
   319  007A2F  F8                 	db	248
   320  007A30  F0                 	db	240
   321  007A31  F0                 	db	240
   322  007A32  F0                 	db	240
   323  007A33  F0                 	db	240
   324  007A34  E0                 	db	224
   325  007A35  E1                 	db	225
   326  007A36  C1                 	db	193
   327  007A37  83                 	db	131
   328  007A38  07                 	db	7
   329  007A39  07                 	db	7
   330  007A3A  0F                 	db	15
   331  007A3B  3F                 	db	63
   332  007A3C  7F                 	db	127
   333  007A3D  FF                 	db	255
   334  007A3E  FF                 	db	255
   335  007A3F  FF                 	db	255
   336  007A40  FF                 	db	255
   337  007A41  FF                 	db	255
   338  007A42  FF                 	db	255
   339  007A43  FF                 	db	255
   340  007A44  FF                 	db	255
   341  007A45  FF                 	db	255
   342  007A46  FF                 	db	255
   343  007A47  FF                 	db	255
   344  007A48  01                 	db	1
   345  007A49  01                 	db	1
   346  007A4A  01                 	db	1
   347  007A4B  01                 	db	1
   348  007A4C  81                 	db	129
   349  007A4D  FF                 	db	255
   350  007A4E  FF                 	db	255
   351  007A4F  01                 	db	1
   352  007A50  01                 	db	1
   353  007A51  01                 	db	1
   354  007A52  01                 	db	1
   355  007A53  83                 	db	131
   356  007A54  FF                 	db	255
   357  007A55  FF                 	db	255
   358  007A56  01                 	db	1
   359  007A57  01                 	db	1
   360  007A58  01                 	db	1
   361  007A59  01                 	db	1
   362  007A5A  83                 	db	131
   363  007A5B  FF                 	db	255
   364  007A5C  FF                 	db	255
   365  007A5D  01                 	db	1
   366  007A5E  01                 	db	1
   367  007A5F  01                 	db	1
   368  007A60  01                 	db	1
   369  007A61  FF                 	db	255
   370  007A62  FF                 	db	255
   371  007A63  FF                 	db	255
   372  007A64  FF                 	db	255
   373  007A65  FF                 	db	255
   374  007A66  FF                 	db	255
   375  007A67  FF                 	db	255
   376  007A68  FE                 	db	254
   377  007A69  FC                 	db	252
   378  007A6A  F8                 	db	248
   379  007A6B  F0                 	db	240
   380  007A6C  E0                 	db	224
   381  007A6D  80                 	db	128
   382  007A6E  00                 	db	0
   383  007A6F  00                 	db	0
   384  007A70  00                 	db	0
   385  007A71  00                 	db	0
   386  007A72  00                 	db	0
   387  007A73  00                 	db	0
   388  007A74  00                 	db	0
   389  007A75  00                 	db	0
   390  007A76  00                 	db	0
   391  007A77  00                 	db	0
   392  007A78  00                 	db	0
   393  007A79  00                 	db	0
   394  007A7A  00                 	db	0
   395  007A7B  00                 	db	0
   396  007A7C  00                 	db	0
   397  007A7D  00                 	db	0
   398  007A7E  00                 	db	0
   399  007A7F  00                 	db	0
   400  007A80  00                 	db	0
   401  007A81  00                 	db	0
   402  007A82  00                 	db	0
   403  007A83  00                 	db	0
   404  007A84  00                 	db	0
   405  007A85  00                 	db	0
   406  007A86  00                 	db	0
   407  007A87  00                 	db	0
   408  007A88  00                 	db	0
   409  007A89  00                 	db	0
   410  007A8A  00                 	db	0
   411  007A8B  00                 	db	0
   412  007A8C  E0                 	db	224
   413  007A8D  FC                 	db	252
   414  007A8E  FF                 	db	255
   415  007A8F  FF                 	db	255
   416  007A90  FF                 	db	255
   417  007A91  FF                 	db	255
   418  007A92  FF                 	db	255
   419  007A93  FF                 	db	255
   420  007A94  FF                 	db	255
   421  007A95  FF                 	db	255
   422  007A96  FF                 	db	255
   423  007A97  FF                 	db	255
   424  007A98  FF                 	db	255
   425  007A99  FF                 	db	255
   426  007A9A  FF                 	db	255
   427  007A9B  FF                 	db	255
   428  007A9C  FF                 	db	255
   429  007A9D  FF                 	db	255
   430  007A9E  FF                 	db	255
   431  007A9F  87                 	db	135
   432  007AA0  00                 	db	0
   433  007AA1  00                 	db	0
   434  007AA2  00                 	db	0
   435  007AA3  00                 	db	0
   436  007AA4  FC                 	db	252
   437  007AA5  FF                 	db	255
   438  007AA6  FF                 	db	255
   439  007AA7  FF                 	db	255
   440  007AA8  FF                 	db	255
   441  007AA9  FF                 	db	255
   442  007AAA  FF                 	db	255
   443  007AAB  FF                 	db	255
   444  007AAC  FF                 	db	255
   445  007AAD  FF                 	db	255
   446  007AAE  FF                 	db	255
   447  007AAF  FF                 	db	255
   448  007AB0  FF                 	db	255
   449  007AB1  FF                 	db	255
   450  007AB2  FF                 	db	255
   451  007AB3  FF                 	db	255
   452  007AB4  FF                 	db	255
   453  007AB5  FF                 	db	255
   454  007AB6  FF                 	db	255
   455  007AB7  FF                 	db	255
   456  007AB8  FE                 	db	254
   457  007AB9  38                 	db	56
   458  007ABA  00                 	db	0
   459  007ABB  00                 	db	0
   460  007ABC  00                 	db	0
   461  007ABD  03                 	db	3
   462  007ABE  FF                 	db	255
   463  007ABF  FF                 	db	255
   464  007AC0  71                 	db	113
   465  007AC1  71                 	db	113
   466  007AC2  71                 	db	113
   467  007AC3  71                 	db	113
   468  007AC4  71                 	db	113
   469  007AC5  71                 	db	113
   470  007AC6  71                 	db	113
   471  007AC7  FF                 	db	255
   472  007AC8  F9                 	db	249
   473  007AC9  F9                 	db	249
   474  007ACA  F9                 	db	249
   475  007ACB  FF                 	db	255
   476  007ACC  FF                 	db	255
   477  007ACD  FF                 	db	255
   478  007ACE  FF                 	db	255
   479  007ACF  FF                 	db	255
   480  007AD0  FF                 	db	255
   481  007AD1  FF                 	db	255
   482  007AD2  FF                 	db	255
   483  007AD3  FF                 	db	255
   484  007AD4  FF                 	db	255
   485  007AD5  FF                 	db	255
   486  007AD6  FF                 	db	255
   487  007AD7  FF                 	db	255
   488  007AD8  FF                 	db	255
   489  007AD9  FF                 	db	255
   490  007ADA  FF                 	db	255
   491  007ADB  FF                 	db	255
   492  007ADC  FF                 	db	255
   493  007ADD  FF                 	db	255
   494  007ADE  FF                 	db	255
   495  007ADF  FF                 	db	255
   496  007AE0  FF                 	db	255
   497  007AE1  FF                 	db	255
   498  007AE2  71                 	db	113
   499  007AE3  71                 	db	113
   500  007AE4  71                 	db	113
   501  007AE5  71                 	db	113
   502  007AE6  71                 	db	113
   503  007AE7  71                 	db	113
   504  007AE8  71                 	db	113
   505  007AE9  FF                 	db	255
   506  007AEA  FF                 	db	255
   507  007AEB  FF                 	db	255
   508  007AEC  FF                 	db	255
   509  007AED  FF                 	db	255
   510  007AEE  FF                 	db	255
   511  007AEF  F8                 	db	248
   512  007AF0  C0                 	db	192
   513  007AF1  00                 	db	0
   514  007AF2  00                 	db	0
   515  007AF3  00                 	db	0
   516  007AF4  00                 	db	0
   517  007AF5  00                 	db	0
   518  007AF6  00                 	db	0
   519  007AF7  00                 	db	0
   520  007AF8  00                 	db	0
   521  007AF9  00                 	db	0
   522  007AFA  00                 	db	0
   523  007AFB  00                 	db	0
   524  007AFC  00                 	db	0
   525  007AFD  00                 	db	0
   526  007AFE  00                 	db	0
   527  007AFF  00                 	db	0
   528  007B00  00                 	db	0
   529  007B01  00                 	db	0
   530  007B02  00                 	db	0
   531  007B03  00                 	db	0
   532  007B04  00                 	db	0
   533  007B05  00                 	db	0
   534  007B06  00                 	db	0
   535  007B07  00                 	db	0
   536  007B08  00                 	db	0
   537  007B09  00                 	db	0
   538  007B0A  00                 	db	0
   539  007B0B  7C                 	db	124
   540  007B0C  FF                 	db	255
   541  007B0D  FF                 	db	255
   542  007B0E  FF                 	db	255
   543  007B0F  FF                 	db	255
   544  007B10  FF                 	db	255
   545  007B11  FF                 	db	255
   546  007B12  FF                 	db	255
   547  007B13  FF                 	db	255
   548  007B14  FF                 	db	255
   549  007B15  FF                 	db	255
   550  007B16  FF                 	db	255
   551  007B17  FF                 	db	255
   552  007B18  FF                 	db	255
   553  007B19  FF                 	db	255
   554  007B1A  FF                 	db	255
   555  007B1B  FF                 	db	255
   556  007B1C  FF                 	db	255
   557  007B1D  FF                 	db	255
   558  007B1E  FF                 	db	255
   559  007B1F  FF                 	db	255
   560  007B20  FC                 	db	252
   561  007B21  70                 	db	112
   562  007B22  60                 	db	96
   563  007B23  00                 	db	0
   564  007B24  00                 	db	0
   565  007B25  03                 	db	3
   566  007B26  07                 	db	7
   567  007B27  0F                 	db	15
   568  007B28  0F                 	db	15
   569  007B29  1F                 	db	31
   570  007B2A  1F                 	db	31
   571  007B2B  3F                 	db	63
   572  007B2C  3F                 	db	63
   573  007B2D  3F                 	db	63
   574  007B2E  3F                 	db	63
   575  007B2F  3F                 	db	63
   576  007B30  3F                 	db	63
   577  007B31  3F                 	db	63
   578  007B32  3F                 	db	63
   579  007B33  1F                 	db	31
   580  007B34  1F                 	db	31
   581  007B35  0F                 	db	15
   582  007B36  07                 	db	7
   583  007B37  03                 	db	3
   584  007B38  81                 	db	129
   585  007B39  C0                 	db	192
   586  007B3A  E0                 	db	224
   587  007B3B  F0                 	db	240
   588  007B3C  FC                 	db	252
   589  007B3D  FF                 	db	255
   590  007B3E  FF                 	db	255
   591  007B3F  FF                 	db	255
   592  007B40  1C                 	db	28
   593  007B41  18                 	db	24
   594  007B42  18                 	db	24
   595  007B43  18                 	db	24
   596  007B44  18                 	db	24
   597  007B45  18                 	db	24
   598  007B46  18                 	db	24
   599  007B47  FF                 	db	255
   600  007B48  FF                 	db	255
   601  007B49  FF                 	db	255
   602  007B4A  FF                 	db	255
   603  007B4B  FF                 	db	255
   604  007B4C  FF                 	db	255
   605  007B4D  FF                 	db	255
   606  007B4E  FF                 	db	255
   607  007B4F  FF                 	db	255
   608  007B50  FF                 	db	255
   609  007B51  FF                 	db	255
   610  007B52  FF                 	db	255
   611  007B53  FF                 	db	255
   612  007B54  FF                 	db	255
   613  007B55  FF                 	db	255
   614  007B56  FF                 	db	255
   615  007B57  FF                 	db	255
   616  007B58  FF                 	db	255
   617  007B59  FF                 	db	255
   618  007B5A  FF                 	db	255
   619  007B5B  FF                 	db	255
   620  007B5C  FF                 	db	255
   621  007B5D  FF                 	db	255
   622  007B5E  FF                 	db	255
   623  007B5F  FF                 	db	255
   624  007B60  FF                 	db	255
   625  007B61  FF                 	db	255
   626  007B62  18                 	db	24
   627  007B63  18                 	db	24
   628  007B64  18                 	db	24
   629  007B65  18                 	db	24
   630  007B66  18                 	db	24
   631  007B67  18                 	db	24
   632  007B68  18                 	db	24
   633  007B69  FF                 	db	255
   634  007B6A  FF                 	db	255
   635  007B6B  FF                 	db	255
   636  007B6C  FF                 	db	255
   637  007B6D  FF                 	db	255
   638  007B6E  FF                 	db	255
   639  007B6F  FF                 	db	255
   640  007B70  FF                 	db	255
   641  007B71  00                 	db	0
   642  007B72  00                 	db	0
   643  007B73  00                 	db	0
   644  007B74  00                 	db	0
   645  007B75  00                 	db	0
   646  007B76  00                 	db	0
   647  007B77  00                 	db	0
   648  007B78  00                 	db	0
   649  007B79  00                 	db	0
   650  007B7A  00                 	db	0
   651  007B7B  00                 	db	0
   652  007B7C  00                 	db	0
   653  007B7D  00                 	db	0
   654  007B7E  00                 	db	0
   655  007B7F  00                 	db	0
   656  007B80  00                 	db	0
   657  007B81  00                 	db	0
   658  007B82  00                 	db	0
   659  007B83  00                 	db	0
   660  007B84  00                 	db	0
   661  007B85  00                 	db	0
   662  007B86  00                 	db	0
   663  007B87  00                 	db	0
   664  007B88  00                 	db	0
   665  007B89  00                 	db	0
   666  007B8A  00                 	db	0
   667  007B8B  00                 	db	0
   668  007B8C  0F                 	db	15
   669  007B8D  7F                 	db	127
   670  007B8E  FF                 	db	255
   671  007B8F  FF                 	db	255
   672  007B90  FF                 	db	255
   673  007B91  FF                 	db	255
   674  007B92  FF                 	db	255
   675  007B93  FF                 	db	255
   676  007B94  FF                 	db	255
   677  007B95  FF                 	db	255
   678  007B96  FF                 	db	255
   679  007B97  FF                 	db	255
   680  007B98  FF                 	db	255
   681  007B99  7F                 	db	127
   682  007B9A  3F                 	db	63
   683  007B9B  1F                 	db	31
   684  007B9C  0F                 	db	15
   685  007B9D  07                 	db	7
   686  007B9E  03                 	db	3
   687  007B9F  81                 	db	129
   688  007BA0  C0                 	db	192
   689  007BA1  E0                 	db	224
   690  007BA2  F0                 	db	240
   691  007BA3  F8                 	db	248
   692  007BA4  FC                 	db	252
   693  007BA5  FE                 	db	254
   694  007BA6  FF                 	db	255
   695  007BA7  FE                 	db	254
   696  007BA8  FE                 	db	254
   697  007BA9  FE                 	db	254
   698  007BAA  FC                 	db	252
   699  007BAB  FC                 	db	252
   700  007BAC  FC                 	db	252
   701  007BAD  FC                 	db	252
   702  007BAE  FC                 	db	252
   703  007BAF  FC                 	db	252
   704  007BB0  FC                 	db	252
   705  007BB1  FC                 	db	252
   706  007BB2  FC                 	db	252
   707  007BB3  FE                 	db	254
   708  007BB4  FE                 	db	254
   709  007BB5  FE                 	db	254
   710  007BB6  FF                 	db	255
   711  007BB7  FF                 	db	255
   712  007BB8  FF                 	db	255
   713  007BB9  FF                 	db	255
   714  007BBA  FF                 	db	255
   715  007BBB  FF                 	db	255
   716  007BBC  FF                 	db	255
   717  007BBD  FF                 	db	255
   718  007BBE  FF                 	db	255
   719  007BBF  FF                 	db	255
   720  007BC0  86                 	db	134
   721  007BC1  86                 	db	134
   722  007BC2  86                 	db	134
   723  007BC3  86                 	db	134
   724  007BC4  86                 	db	134
   725  007BC5  86                 	db	134
   726  007BC6  86                 	db	134
   727  007BC7  FF                 	db	255
   728  007BC8  FF                 	db	255
   729  007BC9  FF                 	db	255
   730  007BCA  FF                 	db	255
   731  007BCB  FF                 	db	255
   732  007BCC  FF                 	db	255
   733  007BCD  FF                 	db	255
   734  007BCE  FF                 	db	255
   735  007BCF  FF                 	db	255
   736  007BD0  FF                 	db	255
   737  007BD1  FF                 	db	255
   738  007BD2  FF                 	db	255
   739  007BD3  FF                 	db	255
   740  007BD4  FF                 	db	255
   741  007BD5  FF                 	db	255
   742  007BD6  FF                 	db	255
   743  007BD7  FF                 	db	255
   744  007BD8  FF                 	db	255
   745  007BD9  FF                 	db	255
   746  007BDA  FF                 	db	255
   747  007BDB  FF                 	db	255
   748  007BDC  FF                 	db	255
   749  007BDD  FF                 	db	255
   750  007BDE  FF                 	db	255
   751  007BDF  FF                 	db	255
   752  007BE0  FF                 	db	255
   753  007BE1  FF                 	db	255
   754  007BE2  86                 	db	134
   755  007BE3  86                 	db	134
   756  007BE4  86                 	db	134
   757  007BE5  86                 	db	134
   758  007BE6  86                 	db	134
   759  007BE7  86                 	db	134
   760  007BE8  86                 	db	134
   761  007BE9  FF                 	db	255
   762  007BEA  FF                 	db	255
   763  007BEB  FF                 	db	255
   764  007BEC  FF                 	db	255
   765  007BED  FF                 	db	255
   766  007BEE  7F                 	db	127
   767  007BEF  1F                 	db	31
   768  007BF0  03                 	db	3
   769  007BF1  00                 	db	0
   770  007BF2  00                 	db	0
   771  007BF3  00                 	db	0
   772  007BF4  00                 	db	0
   773  007BF5  00                 	db	0
   774  007BF6  00                 	db	0
   775  007BF7  00                 	db	0
   776  007BF8  00                 	db	0
   777  007BF9  00                 	db	0
   778  007BFA  00                 	db	0
   779  007BFB  00                 	db	0
   780  007BFC  00                 	db	0
   781  007BFD  00                 	db	0
   782  007BFE  00                 	db	0
   783  007BFF  00                 	db	0
   784  007C00  00                 	db	0
   785  007C01  00                 	db	0
   786  007C02  00                 	db	0
   787  007C03  00                 	db	0
   788  007C04  00                 	db	0
   789  007C05  00                 	db	0
   790  007C06  00                 	db	0
   791  007C07  00                 	db	0
   792  007C08  00                 	db	0
   793  007C09  00                 	db	0
   794  007C0A  00                 	db	0
   795  007C0B  00                 	db	0
   796  007C0C  00                 	db	0
   797  007C0D  00                 	db	0
   798  007C0E  01                 	db	1
   799  007C0F  03                 	db	3
   800  007C10  0F                 	db	15
   801  007C11  1F                 	db	31
   802  007C12  3F                 	db	63
   803  007C13  7F                 	db	127
   804  007C14  EF                 	db	239
   805  007C15  C7                 	db	199
   806  007C16  83                 	db	131
   807  007C17  81                 	db	129
   808  007C18  C0                 	db	192
   809  007C19  E0                 	db	224
   810  007C1A  F0                 	db	240
   811  007C1B  F8                 	db	248
   812  007C1C  FC                 	db	252
   813  007C1D  FE                 	db	254
   814  007C1E  FF                 	db	255
   815  007C1F  FF                 	db	255
   816  007C20  FF                 	db	255
   817  007C21  FF                 	db	255
   818  007C22  FF                 	db	255
   819  007C23  FF                 	db	255
   820  007C24  FF                 	db	255
   821  007C25  FF                 	db	255
   822  007C26  FF                 	db	255
   823  007C27  FF                 	db	255
   824  007C28  FF                 	db	255
   825  007C29  FF                 	db	255
   826  007C2A  FF                 	db	255
   827  007C2B  FF                 	db	255
   828  007C2C  FF                 	db	255
   829  007C2D  FF                 	db	255
   830  007C2E  FF                 	db	255
   831  007C2F  FF                 	db	255
   832  007C30  FF                 	db	255
   833  007C31  FF                 	db	255
   834  007C32  FF                 	db	255
   835  007C33  FF                 	db	255
   836  007C34  FF                 	db	255
   837  007C35  FF                 	db	255
   838  007C36  FF                 	db	255
   839  007C37  FF                 	db	255
   840  007C38  FF                 	db	255
   841  007C39  FF                 	db	255
   842  007C3A  FF                 	db	255
   843  007C3B  FF                 	db	255
   844  007C3C  FF                 	db	255
   845  007C3D  FF                 	db	255
   846  007C3E  FF                 	db	255
   847  007C3F  FF                 	db	255
   848  007C40  FF                 	db	255
   849  007C41  FF                 	db	255
   850  007C42  FF                 	db	255
   851  007C43  FF                 	db	255
   852  007C44  FF                 	db	255
   853  007C45  FF                 	db	255
   854  007C46  FF                 	db	255
   855  007C47  FF                 	db	255
   856  007C48  C0                 	db	192
   857  007C49  C0                 	db	192
   858  007C4A  C0                 	db	192
   859  007C4B  C0                 	db	192
   860  007C4C  C0                 	db	192
   861  007C4D  FF                 	db	255
   862  007C4E  FF                 	db	255
   863  007C4F  C0                 	db	192
   864  007C50  C0                 	db	192
   865  007C51  C0                 	db	192
   866  007C52  C0                 	db	192
   867  007C53  C0                 	db	192
   868  007C54  FF                 	db	255
   869  007C55  FF                 	db	255
   870  007C56  C0                 	db	192
   871  007C57  C0                 	db	192
   872  007C58  C0                 	db	192
   873  007C59  C0                 	db	192
   874  007C5A  C0                 	db	192
   875  007C5B  FF                 	db	255
   876  007C5C  FF                 	db	255
   877  007C5D  C0                 	db	192
   878  007C5E  C0                 	db	192
   879  007C5F  C0                 	db	192
   880  007C60  C0                 	db	192
   881  007C61  FF                 	db	255
   882  007C62  FF                 	db	255
   883  007C63  FF                 	db	255
   884  007C64  FF                 	db	255
   885  007C65  FF                 	db	255
   886  007C66  FF                 	db	255
   887  007C67  FF                 	db	255
   888  007C68  7F                 	db	127
   889  007C69  3F                 	db	63
   890  007C6A  1F                 	db	31
   891  007C6B  0F                 	db	15
   892  007C6C  03                 	db	3
   893  007C6D  01                 	db	1
   894  007C6E  00                 	db	0
   895  007C6F  00                 	db	0
   896  007C70  00                 	db	0
   897  007C71  00                 	db	0
   898  007C72  00                 	db	0
   899  007C73  00                 	db	0
   900  007C74  00                 	db	0
   901  007C75  00                 	db	0
   902  007C76  00                 	db	0
   903  007C77  00                 	db	0
   904  007C78  00                 	db	0
   905  007C79  00                 	db	0
   906  007C7A  00                 	db	0
   907  007C7B  00                 	db	0
   908  007C7C  00                 	db	0
   909  007C7D  00                 	db	0
   910  007C7E  00                 	db	0
   911  007C7F  00                 	db	0
   912  007C80  00                 	db	0
   913  007C81  00                 	db	0
   914  007C82  00                 	db	0
   915  007C83  00                 	db	0
   916  007C84  00                 	db	0
   917  007C85  00                 	db	0
   918  007C86  00                 	db	0
   919  007C87  00                 	db	0
   920  007C88  00                 	db	0
   921  007C89  00                 	db	0
   922  007C8A  80                 	db	128
   923  007C8B  80                 	db	128
   924  007C8C  80                 	db	128
   925  007C8D  80                 	db	128
   926  007C8E  00                 	db	0
   927  007C8F  00                 	db	0
   928  007C90  00                 	db	0
   929  007C91  00                 	db	0
   930  007C92  00                 	db	0
   931  007C93  00                 	db	0
   932  007C94  00                 	db	0
   933  007C95  01                 	db	1
   934  007C96  01                 	db	1
   935  007C97  03                 	db	3
   936  007C98  07                 	db	7
   937  007C99  07                 	db	7
   938  007C9A  0F                 	db	15
   939  007C9B  0F                 	db	15
   940  007C9C  9F                 	db	159
   941  007C9D  1F                 	db	31
   942  007C9E  3F                 	db	63
   943  007C9F  3F                 	db	63
   944  007CA0  3F                 	db	63
   945  007CA1  7F                 	db	127
   946  007CA2  7F                 	db	127
   947  007CA3  7F                 	db	127
   948  007CA4  7F                 	db	127
   949  007CA5  7F                 	db	127
   950  007CA6  7F                 	db	127
   951  007CA7  7F                 	db	127
   952  007CA8  7F                 	db	127
   953  007CA9  7F                 	db	127
   954  007CAA  7F                 	db	127
   955  007CAB  7F                 	db	127
   956  007CAC  7F                 	db	127
   957  007CAD  7F                 	db	127
   958  007CAE  FF                 	db	255
   959  007CAF  FF                 	db	255
   960  007CB0  FF                 	db	255
   961  007CB1  BF                 	db	191
   962  007CB2  3F                 	db	63
   963  007CB3  3F                 	db	63
   964  007CB4  3F                 	db	63
   965  007CB5  1F                 	db	31
   966  007CB6  1F                 	db	31
   967  007CB7  0F                 	db	15
   968  007CB8  0F                 	db	15
   969  007CB9  07                 	db	7
   970  007CBA  07                 	db	7
   971  007CBB  03                 	db	3
   972  007CBC  81                 	db	129
   973  007CBD  01                 	db	1
   974  007CBE  00                 	db	0
   975  007CBF  01                 	db	1
   976  007CC0  01                 	db	1
   977  007CC1  03                 	db	3
   978  007CC2  07                 	db	7
   979  007CC3  07                 	db	7
   980  007CC4  0F                 	db	15
   981  007CC5  0F                 	db	15
   982  007CC6  1F                 	db	31
   983  007CC7  1F                 	db	31
   984  007CC8  1F                 	db	31
   985  007CC9  3F                 	db	63
   986  007CCA  3F                 	db	63
   987  007CCB  BF                 	db	191
   988  007CCC  3F                 	db	63
   989  007CCD  7F                 	db	127
   990  007CCE  7F                 	db	127
   991  007CCF  7F                 	db	127
   992  007CD0  7F                 	db	127
   993  007CD1  FF                 	db	255
   994  007CD2  7F                 	db	127
   995  007CD3  7F                 	db	127
   996  007CD4  7F                 	db	127
   997  007CD5  7F                 	db	127
   998  007CD6  7F                 	db	127
   999  007CD7  7F                 	db	127
  1000  007CD8  7F                 	db	127
  1001  007CD9  3F                 	db	63
  1002  007CDA  3F                 	db	63
  1003  007CDB  3F                 	db	63
  1004  007CDC  3F                 	db	63
  1005  007CDD  9F                 	db	159
  1006  007CDE  1F                 	db	31
  1007  007CDF  1F                 	db	31
  1008  007CE0  0F                 	db	15
  1009  007CE1  0F                 	db	15
  1010  007CE2  07                 	db	7
  1011  007CE3  07                 	db	7
  1012  007CE4  03                 	db	3
  1013  007CE5  01                 	db	1
  1014  007CE6  01                 	db	1
  1015  007CE7  00                 	db	0
  1016  007CE8  00                 	db	0
  1017  007CE9  00                 	db	0
  1018  007CEA  00                 	db	0
  1019  007CEB  00                 	db	0
  1020  007CEC  00                 	db	0
  1021  007CED  00                 	db	0
  1022  007CEE  00                 	db	0
  1023  007CEF  00                 	db	0
  1024  007CF0  00                 	db	0
  1025  007CF1  00                 	db	0
  1026  007CF2  00                 	db	0
  1027  007CF3  00                 	db	0
  1028  007CF4  00                 	db	0
  1029  007CF5  00                 	db	0
  1030  007CF6  00                 	db	0
  1031  007CF7  00                 	db	0
  1032  007CF8  00                 	db	0
  1033  007CF9  00                 	db	0
  1034  007CFA  00                 	db	0
  1035  007CFB  00                 	db	0
  1036  007CFC  00                 	db	0
  1037  007CFD  00                 	db	0
  1038  007CFE  00                 	db	0
  1039  007CFF  00                 	db	0
  1040  007D00  00                 	db	0
  1041  007D01  00                 	db	0
  1042  007D02  00                 	db	0
  1043  007D03  00                 	db	0
  1044  007D04  00                 	db	0
  1045  007D05  00                 	db	0
  1046  007D06  00                 	db	0
  1047  007D07  00                 	db	0
  1048  007D08  00                 	db	0
  1049  007D09  00                 	db	0
  1050  007D0A  7F                 	db	127
  1051  007D0B  44                 	db	68
  1052  007D0C  44                 	db	68
  1053  007D0D  44                 	db	68
  1054  007D0E  00                 	db	0
  1055  007D0F  42                 	db	66
  1056  007D10  66                 	db	102
  1057  007D11  18                 	db	24
  1058  007D12  1C                 	db	28
  1059  007D13  66                 	db	102
  1060  007D14  40                 	db	64
  1061  007D15  00                 	db	0
  1062  007D16  FE                 	db	254
  1063  007D17  42                 	db	66
  1064  007D18  42                 	db	66
  1065  007D19  7E                 	db	126
  1066  007D1A  00                 	db	0
  1067  007D1B  00                 	db	0
  1068  007D1C  7F                 	db	127
  1069  007D1D  00                 	db	0
  1070  007D1E  3C                 	db	60
  1071  007D1F  42                 	db	66
  1072  007D20  42                 	db	66
  1073  007D21  3C                 	db	60
  1074  007D22  00                 	db	0
  1075  007D23  00                 	db	0
  1076  007D24  7E                 	db	126
  1077  007D25  02                 	db	2
  1078  007D26  02                 	db	2
  1079  007D27  00                 	db	0
  1080  007D28  3C                 	db	60
  1081  007D29  4A                 	db	74
  1082  007D2A  4A                 	db	74
  1083  007D2B  6E                 	db	110
  1084  007D2C  00                 	db	0
  1085  007D2D  00                 	db	0
  1086  007D2E  7F                 	db	127
  1087  007D2F  44                 	db	68
  1088  007D30  44                 	db	68
  1089  007D31  44                 	db	68
  1090  007D32  00                 	db	0
  1091  007D33  00                 	db	0
  1092  007D34  7E                 	db	126
  1093  007D35  02                 	db	2
  1094  007D36  02                 	db	2
  1095  007D37  7C                 	db	124
  1096  007D38  02                 	db	2
  1097  007D39  02                 	db	2
  1098  007D3A  7C                 	db	124
  1099  007D3B  00                 	db	0
  1100  007D3C  7F                 	db	127
  1101  007D3D  42                 	db	66
  1102  007D3E  42                 	db	66
  1103  007D3F  7E                 	db	126
  1104  007D40  00                 	db	0
  1105  007D41  00                 	db	0
  1106  007D42  3C                 	db	60
  1107  007D43  4A                 	db	74
  1108  007D44  4A                 	db	74
  1109  007D45  6E                 	db	110
  1110  007D46  00                 	db	0
  1111  007D47  00                 	db	0
  1112  007D48  3C                 	db	60
  1113  007D49  42                 	db	66
  1114  007D4A  42                 	db	66
  1115  007D4B  7F                 	db	127
  1116  007D4C  00                 	db	0
  1117  007D4D  00                 	db	0
  1118  007D4E  3C                 	db	60
  1119  007D4F  42                 	db	66
  1120  007D50  42                 	db	66
  1121  007D51  7F                 	db	127
  1122  007D52  00                 	db	0
  1123  007D53  00                 	db	0
  1124  007D54  3C                 	db	60
  1125  007D55  4A                 	db	74
  1126  007D56  4A                 	db	74
  1127  007D57  6E                 	db	110
  1128  007D58  00                 	db	0
  1129  007D59  00                 	db	0
  1130  007D5A  3C                 	db	60
  1131  007D5B  42                 	db	66
  1132  007D5C  42                 	db	66
  1133  007D5D  7F                 	db	127
  1134  007D5E  00                 	db	0
  1135  007D5F  00                 	db	0
  1136  007D60  40                 	db	64
  1137  007D61  00                 	db	0
  1138  007D62  00                 	db	0
  1139  007D63  3C                 	db	60
  1140  007D64  42                 	db	66
  1141  007D65  42                 	db	66
  1142  007D66  42                 	db	66
  1143  007D67  24                 	db	36
  1144  007D68  00                 	db	0
  1145  007D69  3C                 	db	60
  1146  007D6A  42                 	db	66
  1147  007D6B  42                 	db	66
  1148  007D6C  3C                 	db	60
  1149  007D6D  00                 	db	0
  1150  007D6E  00                 	db	0
  1151  007D6F  7E                 	db	126
  1152  007D70  02                 	db	2
  1153  007D71  02                 	db	2
  1154  007D72  7C                 	db	124
  1155  007D73  02                 	db	2
  1156  007D74  02                 	db	2
  1157  007D75  7C                 	db	124
  1158  007D76  00                 	db	0
  1159  007D77  00                 	db	0
  1160  007D78  00                 	db	0
  1161  007D79  00                 	db	0
  1162  007D7A  00                 	db	0
  1163  007D7B  00                 	db	0
  1164  007D7C  00                 	db	0
  1165  007D7D  00                 	db	0
  1166  007D7E  00                 	db	0
  1167  007D7F                     __end_of_LogoBitMap:
  1168                           	callstack 0
  1169  007D7F                     _A_GlcdFontTable_U8:
  1170                           	callstack 0
  1171  007D7F  00                 	db	0
  1172  007D80  00                 	db	0
  1173  007D81  00                 	db	0
  1174  007D82  00                 	db	0
  1175  007D83  00                 	db	0
  1176  007D84  00                 	db	0
  1177  007D85  00                 	db	0
  1178  007D86  2F                 	db	47
  1179  007D87  00                 	db	0
  1180  007D88  00                 	db	0
  1181  007D89  00                 	db	0
  1182  007D8A  07                 	db	7
  1183  007D8B  00                 	db	0
  1184  007D8C  07                 	db	7
  1185  007D8D  00                 	db	0
  1186  007D8E  14                 	db	20
  1187  007D8F  7F                 	db	127
  1188  007D90  14                 	db	20
  1189  007D91  7F                 	db	127
  1190  007D92  14                 	db	20
  1191  007D93  24                 	db	36
  1192  007D94  2A                 	db	42
  1193  007D95  7F                 	db	127
  1194  007D96  2A                 	db	42
  1195  007D97  12                 	db	18
  1196  007D98  23                 	db	35
  1197  007D99  13                 	db	19
  1198  007D9A  08                 	db	8
  1199  007D9B  64                 	db	100
  1200  007D9C  62                 	db	98
  1201  007D9D  36                 	db	54
  1202  007D9E  49                 	db	73
  1203  007D9F  55                 	db	85
  1204  007DA0  22                 	db	34
  1205  007DA1  50                 	db	80
  1206  007DA2  00                 	db	0
  1207  007DA3  05                 	db	5
  1208  007DA4  03                 	db	3
  1209  007DA5  00                 	db	0
  1210  007DA6  00                 	db	0
  1211  007DA7  00                 	db	0
  1212  007DA8  1C                 	db	28
  1213  007DA9  22                 	db	34
  1214  007DAA  41                 	db	65
  1215  007DAB  00                 	db	0
  1216  007DAC  00                 	db	0
  1217  007DAD  41                 	db	65
  1218  007DAE  22                 	db	34
  1219  007DAF  1C                 	db	28
  1220  007DB0  00                 	db	0
  1221  007DB1  14                 	db	20
  1222  007DB2  08                 	db	8
  1223  007DB3  3E                 	db	62
  1224  007DB4  08                 	db	8
  1225  007DB5  14                 	db	20
  1226  007DB6  08                 	db	8
  1227  007DB7  08                 	db	8
  1228  007DB8  3E                 	db	62
  1229  007DB9  08                 	db	8
  1230  007DBA  08                 	db	8
  1231  007DBB  00                 	db	0
  1232  007DBC  00                 	db	0
  1233  007DBD  A0                 	db	160
  1234  007DBE  60                 	db	96
  1235  007DBF  00                 	db	0
  1236  007DC0  08                 	db	8
  1237  007DC1  08                 	db	8
  1238  007DC2  08                 	db	8
  1239  007DC3  08                 	db	8
  1240  007DC4  08                 	db	8
  1241  007DC5  00                 	db	0
  1242  007DC6  60                 	db	96
  1243  007DC7  60                 	db	96
  1244  007DC8  00                 	db	0
  1245  007DC9  00                 	db	0
  1246  007DCA  20                 	db	32
  1247  007DCB  10                 	db	16
  1248  007DCC  08                 	db	8
  1249  007DCD  04                 	db	4
  1250  007DCE  02                 	db	2
  1251  007DCF  3E                 	db	62
  1252  007DD0  51                 	db	81
  1253  007DD1  49                 	db	73
  1254  007DD2  45                 	db	69
  1255  007DD3  3E                 	db	62
  1256  007DD4  00                 	db	0
  1257  007DD5  42                 	db	66
  1258  007DD6  7F                 	db	127
  1259  007DD7  40                 	db	64
  1260  007DD8  00                 	db	0
  1261  007DD9  42                 	db	66
  1262  007DDA  61                 	db	97
  1263  007DDB  51                 	db	81
  1264  007DDC  49                 	db	73
  1265  007DDD  46                 	db	70
  1266  007DDE  21                 	db	33
  1267  007DDF  41                 	db	65
  1268  007DE0  45                 	db	69
  1269  007DE1  4B                 	db	75
  1270  007DE2  31                 	db	49
  1271  007DE3  18                 	db	24
  1272  007DE4  14                 	db	20
  1273  007DE5  12                 	db	18
  1274  007DE6  7F                 	db	127
  1275  007DE7  10                 	db	16
  1276  007DE8  27                 	db	39
  1277  007DE9  45                 	db	69
  1278  007DEA  45                 	db	69
  1279  007DEB  45                 	db	69
  1280  007DEC  39                 	db	57
  1281  007DED  3C                 	db	60
  1282  007DEE  4A                 	db	74
  1283  007DEF  49                 	db	73
  1284  007DF0  49                 	db	73
  1285  007DF1  30                 	db	48
  1286  007DF2  01                 	db	1
  1287  007DF3  71                 	db	113
  1288  007DF4  09                 	db	9
  1289  007DF5  05                 	db	5
  1290  007DF6  03                 	db	3
  1291  007DF7  36                 	db	54
  1292  007DF8  49                 	db	73
  1293  007DF9  49                 	db	73
  1294  007DFA  49                 	db	73
  1295  007DFB  36                 	db	54
  1296  007DFC  06                 	db	6
  1297  007DFD  49                 	db	73
  1298  007DFE  49                 	db	73
  1299  007DFF  29                 	db	41
  1300  007E00  1E                 	db	30
  1301  007E01  00                 	db	0
  1302  007E02  36                 	db	54
  1303  007E03  36                 	db	54
  1304  007E04  00                 	db	0
  1305  007E05  00                 	db	0
  1306  007E06  00                 	db	0
  1307  007E07  56                 	db	86
  1308  007E08  36                 	db	54
  1309  007E09  00                 	db	0
  1310  007E0A  00                 	db	0
  1311  007E0B  08                 	db	8
  1312  007E0C  14                 	db	20
  1313  007E0D  22                 	db	34
  1314  007E0E  41                 	db	65
  1315  007E0F  00                 	db	0
  1316  007E10  14                 	db	20
  1317  007E11  14                 	db	20
  1318  007E12  14                 	db	20
  1319  007E13  14                 	db	20
  1320  007E14  14                 	db	20
  1321  007E15  00                 	db	0
  1322  007E16  41                 	db	65
  1323  007E17  22                 	db	34
  1324  007E18  14                 	db	20
  1325  007E19  08                 	db	8
  1326  007E1A  02                 	db	2
  1327  007E1B  01                 	db	1
  1328  007E1C  51                 	db	81
  1329  007E1D  09                 	db	9
  1330  007E1E  06                 	db	6
  1331  007E1F  32                 	db	50
  1332  007E20  49                 	db	73
  1333  007E21  59                 	db	89
  1334  007E22  51                 	db	81
  1335  007E23  3E                 	db	62
  1336  007E24  7C                 	db	124
  1337  007E25  12                 	db	18
  1338  007E26  11                 	db	17
  1339  007E27  12                 	db	18
  1340  007E28  7C                 	db	124
  1341  007E29  7F                 	db	127
  1342  007E2A  49                 	db	73
  1343  007E2B  49                 	db	73
  1344  007E2C  49                 	db	73
  1345  007E2D  36                 	db	54
  1346  007E2E  3E                 	db	62
  1347  007E2F  41                 	db	65
  1348  007E30  41                 	db	65
  1349  007E31  41                 	db	65
  1350  007E32  22                 	db	34
  1351  007E33  7F                 	db	127
  1352  007E34  41                 	db	65
  1353  007E35  41                 	db	65
  1354  007E36  22                 	db	34
  1355  007E37  1C                 	db	28
  1356  007E38  7F                 	db	127
  1357  007E39  49                 	db	73
  1358  007E3A  49                 	db	73
  1359  007E3B  49                 	db	73
  1360  007E3C  41                 	db	65
  1361  007E3D  7F                 	db	127
  1362  007E3E  09                 	db	9
  1363  007E3F  09                 	db	9
  1364  007E40  09                 	db	9
  1365  007E41  01                 	db	1
  1366  007E42  3E                 	db	62
  1367  007E43  41                 	db	65
  1368  007E44  49                 	db	73
  1369  007E45  49                 	db	73
  1370  007E46  7A                 	db	122
  1371  007E47  7F                 	db	127
  1372  007E48  08                 	db	8
  1373  007E49  08                 	db	8
  1374  007E4A  08                 	db	8
  1375  007E4B  7F                 	db	127
  1376  007E4C  00                 	db	0
  1377  007E4D  41                 	db	65
  1378  007E4E  7F                 	db	127
  1379  007E4F  41                 	db	65
  1380  007E50  00                 	db	0
  1381  007E51  20                 	db	32
  1382  007E52  40                 	db	64
  1383  007E53  41                 	db	65
  1384  007E54  3F                 	db	63
  1385  007E55  01                 	db	1
  1386  007E56  7F                 	db	127
  1387  007E57  08                 	db	8
  1388  007E58  14                 	db	20
  1389  007E59  22                 	db	34
  1390  007E5A  41                 	db	65
  1391  007E5B  7F                 	db	127
  1392  007E5C  40                 	db	64
  1393  007E5D  40                 	db	64
  1394  007E5E  40                 	db	64
  1395  007E5F  40                 	db	64
  1396  007E60  7F                 	db	127
  1397  007E61  02                 	db	2
  1398  007E62  0C                 	db	12
  1399  007E63  02                 	db	2
  1400  007E64  7F                 	db	127
  1401  007E65  7F                 	db	127
  1402  007E66  04                 	db	4
  1403  007E67  08                 	db	8
  1404  007E68  10                 	db	16
  1405  007E69  7F                 	db	127
  1406  007E6A  3E                 	db	62
  1407  007E6B  41                 	db	65
  1408  007E6C  41                 	db	65
  1409  007E6D  41                 	db	65
  1410  007E6E  3E                 	db	62
  1411  007E6F  7F                 	db	127
  1412  007E70  09                 	db	9
  1413  007E71  09                 	db	9
  1414  007E72  09                 	db	9
  1415  007E73  06                 	db	6
  1416  007E74  3E                 	db	62
  1417  007E75  41                 	db	65
  1418  007E76  51                 	db	81
  1419  007E77  21                 	db	33
  1420  007E78  5E                 	db	94
  1421  007E79  7F                 	db	127
  1422  007E7A  09                 	db	9
  1423  007E7B  19                 	db	25
  1424  007E7C  29                 	db	41
  1425  007E7D  46                 	db	70
  1426  007E7E  46                 	db	70
  1427  007E7F  49                 	db	73
  1428  007E80  49                 	db	73
  1429  007E81  49                 	db	73
  1430  007E82  31                 	db	49
  1431  007E83  01                 	db	1
  1432  007E84  01                 	db	1
  1433  007E85  7F                 	db	127
  1434  007E86  01                 	db	1
  1435  007E87  01                 	db	1
  1436  007E88  3F                 	db	63
  1437  007E89  40                 	db	64
  1438  007E8A  40                 	db	64
  1439  007E8B  40                 	db	64
  1440  007E8C  3F                 	db	63
  1441  007E8D  1F                 	db	31
  1442  007E8E  20                 	db	32
  1443  007E8F  40                 	db	64
  1444  007E90  20                 	db	32
  1445  007E91  1F                 	db	31
  1446  007E92  3F                 	db	63
  1447  007E93  40                 	db	64
  1448  007E94  38                 	db	56
  1449  007E95  40                 	db	64
  1450  007E96  3F                 	db	63
  1451  007E97  63                 	db	99
  1452  007E98  14                 	db	20
  1453  007E99  08                 	db	8
  1454  007E9A  14                 	db	20
  1455  007E9B  63                 	db	99
  1456  007E9C  07                 	db	7
  1457  007E9D  08                 	db	8
  1458  007E9E  70                 	db	112
  1459  007E9F  08                 	db	8
  1460  007EA0  07                 	db	7
  1461  007EA1  61                 	db	97
  1462  007EA2  51                 	db	81
  1463  007EA3  49                 	db	73
  1464  007EA4  45                 	db	69
  1465  007EA5  43                 	db	67
  1466  007EA6  00                 	db	0
  1467  007EA7  7F                 	db	127
  1468  007EA8  41                 	db	65
  1469  007EA9  41                 	db	65
  1470  007EAA  00                 	db	0
  1471  007EAB  55                 	db	85
  1472  007EAC  AA                 	db	170
  1473  007EAD  55                 	db	85
  1474  007EAE  AA                 	db	170
  1475  007EAF  55                 	db	85
  1476  007EB0  00                 	db	0
  1477  007EB1  41                 	db	65
  1478  007EB2  41                 	db	65
  1479  007EB3  7F                 	db	127
  1480  007EB4  00                 	db	0
  1481  007EB5  04                 	db	4
  1482  007EB6  02                 	db	2
  1483  007EB7  01                 	db	1
  1484  007EB8  02                 	db	2
  1485  007EB9  04                 	db	4
  1486  007EBA  80                 	db	128
  1487  007EBB  80                 	db	128
  1488  007EBC  80                 	db	128
  1489  007EBD  80                 	db	128
  1490  007EBE  80                 	db	128
  1491  007EBF  80                 	db	128
  1492  007EC0  00                 	db	0
  1493  007EC1  00                 	db	0
  1494  007EC2  00                 	db	0
  1495  007EC3  00                 	db	0
  1496  007EC4  20                 	db	32
  1497  007EC5  54                 	db	84
  1498  007EC6  54                 	db	84
  1499  007EC7  54                 	db	84
  1500  007EC8  78                 	db	120
  1501  007EC9  7F                 	db	127
  1502  007ECA  48                 	db	72
  1503  007ECB  44                 	db	68
  1504  007ECC  44                 	db	68
  1505  007ECD  38                 	db	56
  1506  007ECE  38                 	db	56
  1507  007ECF  44                 	db	68
  1508  007ED0  44                 	db	68
  1509  007ED1  44                 	db	68
  1510  007ED2  20                 	db	32
  1511  007ED3  38                 	db	56
  1512  007ED4  44                 	db	68
  1513  007ED5  44                 	db	68
  1514  007ED6  48                 	db	72
  1515  007ED7  7F                 	db	127
  1516  007ED8  38                 	db	56
  1517  007ED9  54                 	db	84
  1518  007EDA  54                 	db	84
  1519  007EDB  54                 	db	84
  1520  007EDC  18                 	db	24
  1521  007EDD  08                 	db	8
  1522  007EDE  7E                 	db	126
  1523  007EDF  09                 	db	9
  1524  007EE0  01                 	db	1
  1525  007EE1  02                 	db	2
  1526  007EE2  18                 	db	24
  1527  007EE3  A4                 	db	164
  1528  007EE4  A4                 	db	164
  1529  007EE5  A4                 	db	164
  1530  007EE6  7C                 	db	124
  1531  007EE7  7F                 	db	127
  1532  007EE8  08                 	db	8
  1533  007EE9  04                 	db	4
  1534  007EEA  04                 	db	4
  1535  007EEB  78                 	db	120
  1536  007EEC  00                 	db	0
  1537  007EED  44                 	db	68
  1538  007EEE  7D                 	db	125
  1539  007EEF  40                 	db	64
  1540  007EF0  00                 	db	0
  1541  007EF1  40                 	db	64
  1542  007EF2  80                 	db	128
  1543  007EF3  84                 	db	132
  1544  007EF4  7D                 	db	125
  1545  007EF5  00                 	db	0
  1546  007EF6  7F                 	db	127
  1547  007EF7  10                 	db	16
  1548  007EF8  28                 	db	40
  1549  007EF9  44                 	db	68
  1550  007EFA  00                 	db	0
  1551  007EFB  00                 	db	0
  1552  007EFC  41                 	db	65
  1553  007EFD  7F                 	db	127
  1554  007EFE  40                 	db	64
  1555  007EFF  00                 	db	0
  1556  007F00  7C                 	db	124
  1557  007F01  04                 	db	4
  1558  007F02  18                 	db	24
  1559  007F03  04                 	db	4
  1560  007F04  78                 	db	120
  1561  007F05  7C                 	db	124
  1562  007F06  08                 	db	8
  1563  007F07  04                 	db	4
  1564  007F08  04                 	db	4
  1565  007F09  78                 	db	120
  1566  007F0A  38                 	db	56
  1567  007F0B  44                 	db	68
  1568  007F0C  44                 	db	68
  1569  007F0D  44                 	db	68
  1570  007F0E  38                 	db	56
  1571  007F0F  FC                 	db	252
  1572  007F10  24                 	db	36
  1573  007F11  24                 	db	36
  1574  007F12  24                 	db	36
  1575  007F13  18                 	db	24
  1576  007F14  18                 	db	24
  1577  007F15  24                 	db	36
  1578  007F16  24                 	db	36
  1579  007F17  18                 	db	24
  1580  007F18  FC                 	db	252
  1581  007F19  7C                 	db	124
  1582  007F1A  08                 	db	8
  1583  007F1B  04                 	db	4
  1584  007F1C  04                 	db	4
  1585  007F1D  08                 	db	8
  1586  007F1E  48                 	db	72
  1587  007F1F  54                 	db	84
  1588  007F20  54                 	db	84
  1589  007F21  54                 	db	84
  1590  007F22  20                 	db	32
  1591  007F23  04                 	db	4
  1592  007F24  3F                 	db	63
  1593  007F25  44                 	db	68
  1594  007F26  40                 	db	64
  1595  007F27  20                 	db	32
  1596  007F28  3C                 	db	60
  1597  007F29  40                 	db	64
  1598  007F2A  40                 	db	64
  1599  007F2B  20                 	db	32
  1600  007F2C  7C                 	db	124
  1601  007F2D  1C                 	db	28
  1602  007F2E  20                 	db	32
  1603  007F2F  40                 	db	64
  1604  007F30  20                 	db	32
  1605  007F31  1C                 	db	28
  1606  007F32  3C                 	db	60
  1607  007F33  40                 	db	64
  1608  007F34  30                 	db	48
  1609  007F35  40                 	db	64
  1610  007F36  3C                 	db	60
  1611  007F37  44                 	db	68
  1612  007F38  28                 	db	40
  1613  007F39  10                 	db	16
  1614  007F3A  28                 	db	40
  1615  007F3B  44                 	db	68
  1616  007F3C  1C                 	db	28
  1617  007F3D  A0                 	db	160
  1618  007F3E  A0                 	db	160
  1619  007F3F  A0                 	db	160
  1620  007F40  7C                 	db	124
  1621  007F41  44                 	db	68
  1622  007F42  64                 	db	100
  1623  007F43  54                 	db	84
  1624  007F44  4C                 	db	76
  1625  007F45  44                 	db	68
  1626  007F46  00                 	db	0
  1627  007F47  10                 	db	16
  1628  007F48  7C                 	db	124
  1629  007F49  82                 	db	130
  1630  007F4A  00                 	db	0
  1631  007F4B  3F                 	db	63
  1632  007F4C  00                 	db	0
  1633  007F4D  00                 	db	0
  1634  007F4E  00                 	db	0
  1635  007F4F  00                 	db	0
  1636  007F50  00                 	db	0
  1637  007F51  82                 	db	130
  1638  007F52  7C                 	db	124
  1639  007F53  10                 	db	16
  1640  007F54  00                 	db	0
  1641  007F55  00                 	db	0
  1642  007F56  06                 	db	6
  1643  007F57  09                 	db	9
  1644  007F58  09                 	db	9
  1645  007F59  06                 	db	6
  1646  007F5A                     __end_of_A_GlcdFontTable_U8:
  1647                           	callstack 0
  1648  007F5A                     STR_16:
  1649  007F5A  0A                 	db	10
  1650  007F5B  43                 	db	67	;'C'
  1651  007F5C  6F                 	db	111	;'o'
  1652  007F5D  6C                 	db	108	;'l'
  1653  007F5E  6F                 	db	111	;'o'
  1654  007F5F  72                 	db	114	;'r'
  1655  007F60  3A                 	db	58	;':'
  1656  007F61  20                 	db	32
  1657  007F62  56                 	db	86	;'V'
  1658  007F63  65                 	db	101	;'e'
  1659  007F64  72                 	db	114	;'r'
  1660  007F65  64                 	db	100	;'d'
  1661  007F66  65                 	db	101	;'e'
  1662  007F67  20                 	db	32
  1663  007F68  4F                 	db	79	;'O'
  1664  007F69  73                 	db	115	;'s'
  1665  007F6A  63                 	db	99	;'c'
  1666  007F6B  75                 	db	117	;'u'
  1667  007F6C  72                 	db	114	;'r'
  1668  007F6D  6F                 	db	111	;'o'
  1669  007F6E  00                 	db	0
  1670  007F6F                     STR_17:
  1671  007F6F  0A                 	db	10
  1672  007F70  43                 	db	67	;'C'
  1673  007F71  6F                 	db	111	;'o'
  1674  007F72  6C                 	db	108	;'l'
  1675  007F73  6F                 	db	111	;'o'
  1676  007F74  72                 	db	114	;'r'
  1677  007F75  3A                 	db	58	;':'
  1678  007F76  20                 	db	32
  1679  007F77  41                 	db	65	;'A'
  1680  007F78  7A                 	db	122	;'z'
  1681  007F79  75                 	db	117	;'u'
  1682  007F7A  6C                 	db	108	;'l'
  1683  007F7B  20                 	db	32
  1684  007F7C  4F                 	db	79	;'O'
  1685  007F7D  73                 	db	115	;'s'
  1686  007F7E  63                 	db	99	;'c'
  1687  007F7F  75                 	db	117	;'u'
  1688  007F80  72                 	db	114	;'r'
  1689  007F81  6F                 	db	111	;'o'
  1690  007F82  00                 	db	0
  1691  007F83                     STR_15:
  1692  007F83  0A                 	db	10
  1693  007F84  43                 	db	67	;'C'
  1694  007F85  6F                 	db	111	;'o'
  1695  007F86  6C                 	db	108	;'l'
  1696  007F87  6F                 	db	111	;'o'
  1697  007F88  72                 	db	114	;'r'
  1698  007F89  3A                 	db	58	;':'
  1699  007F8A  20                 	db	32
  1700  007F8B  41                 	db	65	;'A'
  1701  007F8C  7A                 	db	122	;'z'
  1702  007F8D  75                 	db	117	;'u'
  1703  007F8E  6C                 	db	108	;'l'
  1704  007F8F  20                 	db	32
  1705  007F90  43                 	db	67	;'C'
  1706  007F91  6C                 	db	108	;'l'
  1707  007F92  61                 	db	97	;'a'
  1708  007F93  72                 	db	114	;'r'
  1709  007F94  6F                 	db	111	;'o'
  1710  007F95  00                 	db	0
  1711  007F96                     STR_12:
  1712  007F96  0A                 	db	10
  1713  007F97  2D                 	db	45
  1714  007F98  3E                 	db	62	;'>'
  1715  007F99  20                 	db	32
  1716  007F9A  4E                 	db	78	;'N'
  1717  007F9B  6F                 	db	111	;'o'
  1718  007F9C  20                 	db	32
  1719  007F9D  48                 	db	72	;'H'
  1720  007F9E  61                 	db	97	;'a'
  1721  007F9F  79                 	db	121	;'y'
  1722  007FA0  20                 	db	32
  1723  007FA1  54                 	db	84	;'T'
  1724  007FA2  61                 	db	97	;'a'
  1725  007FA3  70                 	db	112	;'p'
  1726  007FA4  61                 	db	97	;'a'
  1727  007FA5  21                 	db	33
  1728  007FA6  00                 	db	0
  1729  007FA7                     STR_14:
  1730  007FA7  0A                 	db	10
  1731  007FA8  43                 	db	67	;'C'
  1732  007FA9  6F                 	db	111	;'o'
  1733  007FAA  6C                 	db	108	;'l'
  1734  007FAB  6F                 	db	111	;'o'
  1735  007FAC  72                 	db	114	;'r'
  1736  007FAD  3A                 	db	58	;':'
  1737  007FAE  20                 	db	32
  1738  007FAF  41                 	db	65	;'A'
  1739  007FB0  6D                 	db	109	;'m'
  1740  007FB1  61                 	db	97	;'a'
  1741  007FB2  72                 	db	114	;'r'
  1742  007FB3  69                 	db	105	;'i'
  1743  007FB4  6C                 	db	108	;'l'
  1744  007FB5  6C                 	db	108	;'l'
  1745  007FB6  6F                 	db	111	;'o'
  1746  007FB7  00                 	db	0
  1747  007FB8                     STR_13:
  1748  007FB8  0A                 	db	10
  1749  007FB9  43                 	db	67	;'C'
  1750  007FBA  6F                 	db	111	;'o'
  1751  007FBB  6C                 	db	108	;'l'
  1752  007FBC  6F                 	db	111	;'o'
  1753  007FBD  72                 	db	114	;'r'
  1754  007FBE  3A                 	db	58	;':'
  1755  007FBF  20                 	db	32
  1756  007FC0  42                 	db	66	;'B'
  1757  007FC1  6C                 	db	108	;'l'
  1758  007FC2  61                 	db	97	;'a'
  1759  007FC3  6E                 	db	110	;'n'
  1760  007FC4  63                 	db	99	;'c'
  1761  007FC5  6F                 	db	111	;'o'
  1762  007FC6  00                 	db	0
  1763  007FC7                     STR_18:
  1764  007FC7  0A                 	db	10
  1765  007FC8  53                 	db	83	;'S'
  1766  007FC9  69                 	db	105	;'i'
  1767  007FCA  6E                 	db	110	;'n'
  1768  007FCB  20                 	db	32
  1769  007FCC  50                 	db	80	;'P'
  1770  007FCD  72                 	db	114	;'r'
  1771  007FCE  6F                 	db	111	;'o'
  1772  007FCF  74                 	db	116	;'t'
  1773  007FD0  65                 	db	101	;'e'
  1774  007FD1  63                 	db	99	;'c'
  1775  007FD2  74                 	db	116	;'t'
  1776  007FD3  6F                 	db	111	;'o'
  1777  007FD4  72                 	db	114	;'r'
  1778  007FD5  00                 	db	0
  1779  007FD6                     STR_9:
  1780  007FD6  43                 	db	67	;'C'
  1781  007FD7  6F                 	db	111	;'o'
  1782  007FD8  6E                 	db	110	;'n'
  1783  007FD9  74                 	db	116	;'t'
  1784  007FDA  3A                 	db	58	;':'
  1785  007FDB  20                 	db	32
  1786  007FDC  25                 	db	37
  1787  007FDD  31                 	db	49	;'1'
  1788  007FDE  64                 	db	100	;'d'
  1789  007FDF  00                 	db	0
  1790  007FE0                     STR_1:
  1791  007FE0  4C                 	db	76	;'L'
  1792  007FE1  44                 	db	68	;'D'
  1793  007FE2  52                 	db	82	;'R'
  1794  007FE3  3A                 	db	58	;':'
  1795  007FE4  20                 	db	32
  1796  007FE5  25                 	db	37
  1797  007FE6  64                 	db	100	;'d'
  1798  007FE7  00                 	db	0
  1799  007FE8                     STR_4:
  1800  007FE8  4E                 	db	78	;'N'
  1801  007FE9  6F                 	db	111	;'o'
  1802  007FEA  20                 	db	32
  1803  007FEB  50                 	db	80	;'P'
  1804  007FEC  72                 	db	114	;'r'
  1805  007FED  6F                 	db	111	;'o'
  1806  007FEE  64                 	db	100	;'d'
  1807  007FEF  00                 	db	0
  1808  007FF0                     STR_2:
  1809  007FF0  43                 	db	67	;'C'
  1810  007FF1  6F                 	db	111	;'o'
  1811  007FF2  64                 	db	100	;'d'
  1812  007FF3  65                 	db	101	;'e'
  1813  007FF4  3A                 	db	58	;':'
  1814  007FF5  20                 	db	32
  1815  007FF6  00                 	db	0
  1816  007FF7                     STR_10:
  1817  007FF7  4F                 	db	79	;'O'
  1818  007FF8  46                 	db	70	;'F'
  1819  007FF9  46                 	db	70	;'F'
  1820  007FFA  00                 	db	0
  1821  007FFB                     STR_3:
  1822  007FFB  25                 	db	37
  1823  007FFC  63                 	db	99	;'c'
  1824  007FFD  00                 	db	0
  1825  007FFE  00                 	db	0	; dummy byte at the end
  1826  0000                     
  1827                           	psect	nvBANK0
  1828  00009A                     __pnvBANK0:
  1829                           	callstack 0
  1830  00009A                     _ySC:
  1831                           	callstack 0
  1832  00009A                     	ds	2
  1833  00009C                     _xSC:
  1834                           	callstack 0
  1835  00009C                     	ds	2
  1836  0000                     _PORTD	set	3971
  1837  0000                     _PORTB	set	3969
  1838  0000                     _TRISD	set	3989
  1839  0000                     _TRISB	set	3987
  1840  0000                     _PORTEbits	set	3972
  1841  0000                     _PORTAbits	set	3968
  1842  0000                     _PORTA	set	3968
  1843  0000                     _ADRESL	set	4035
  1844  0000                     _ADRESH	set	4036
  1845  0000                     _ADCON0bits	set	4034
  1846  0000                     _PORTCbits	set	3970
  1847  0000                     _ADCON2	set	4032
  1848  0000                     _ADCON0	set	4034
  1849  0000                     _ADCON1	set	4033
  1850  0000                     _TRISC	set	3988
  1851  0000                     _TRISE	set	3990
  1852  0000                     _TRISA	set	3986
  1853                           
  1854                           ; #config settings
  1855                           
  1856                           	psect	cinit
  1857  006656                     __pcinit:
  1858                           	callstack 0
  1859  006656                     start_initialization:
  1860                           	callstack 0
  1861  006656                     __initialization:
  1862                           	callstack 0
  1863                           
  1864                           ; Initialize objects allocated to BANK0 (36 bytes)
  1865                           ; load TBLPTR registers with __pidataBANK0
  1866  006656  0E5E               	movlw	low __pidataBANK0
  1867  006658  6EF6               	movwf	tblptrl,c
  1868  00665A  0E65               	movlw	high __pidataBANK0
  1869  00665C  6EF7               	movwf	tblptrh,c
  1870  00665E  0E00               	movlw	low (__pidataBANK0 shr (0+16))
  1871  006660  6EF8               	movwf	tblptru,c
  1872  006662  EE00  F060         	lfsr	0,__pdataBANK0
  1873  006666  EE10 F024          	lfsr	1,36
  1874  00666A                     copy_data0:
  1875  00666A  0009               	tblrd		*+
  1876  00666C  CFF5 FFEE          	movff	tablat,postinc0
  1877  006670  50E5               	movf	postdec1,w,c
  1878  006672  50E1               	movf	fsr1l,w,c
  1879  006674  E1FA               	bnz	copy_data0
  1880                           
  1881                           ; Initialize objects allocated to COMRAM (1 bytes)
  1882                           ; load TBLPTR registers with __pidataCOMRAM
  1883  006676  0EAF               	movlw	low __pidataCOMRAM
  1884  006678  6EF6               	movwf	tblptrl,c
  1885  00667A  0E64               	movlw	high __pidataCOMRAM
  1886  00667C  6EF7               	movwf	tblptrh,c
  1887  00667E  0E00               	movlw	low (__pidataCOMRAM shr (0+16))
  1888  006680  6EF8               	movwf	tblptru,c
  1889  006682  0009               	tblrd		*+	;fetch initializer
  1890  006684  CFF5 F05F          	movff	tablat,__pdataCOMRAM
  1891                           
  1892                           ; Clear objects allocated to BANK0 (22 bytes)
  1893  006688  EE00  F084         	lfsr	0,__pbssBANK0
  1894  00668C  0E16               	movlw	22
  1895  00668E                     clear_0:
  1896  00668E  6AEE               	clrf	postinc0,c
  1897  006690  06E8               	decf	wreg,f,c
  1898  006692  E1FD               	bnz	clear_0
  1899                           
  1900                           ; Clear objects allocated to COMRAM (7 bytes)
  1901  006694  EE00  F058         	lfsr	0,__pbssCOMRAM
  1902  006698  0E07               	movlw	7
  1903  00669A                     clear_1:
  1904  00669A  6AEE               	clrf	postinc0,c
  1905  00669C  06E8               	decf	wreg,f,c
  1906  00669E  E1FD               	bnz	clear_1
  1907  0066A0                     end_of_initialization:
  1908                           	callstack 0
  1909  0066A0                     __end_of__initialization:
  1910                           	callstack 0
  1911  0066A0  0E00               	movlw	low (__Lmediumconst shr (0+16))
  1912  0066A2  6EF8               	movwf	tblptru,c
  1913  0066A4  0100               	movlb	0
  1914  0066A6  EFAB  F03A         	goto	_main	;jump to C main() function
  1915                           
  1916                           	psect	bssCOMRAM
  1917  000058                     __pbssCOMRAM:
  1918                           	callstack 0
  1919  000058                     _GLCD:
  1920                           	callstack 0
  1921  000058                     	ds	4
  1922  00005C                     _ayM:
  1923                           	callstack 0
  1924  00005C                     	ds	2
  1925  00005E                     _valM:
  1926                           	callstack 0
  1927  00005E                     	ds	1
  1928                           
  1929                           	psect	dataCOMRAM
  1930  00005F                     __pdataCOMRAM:
  1931                           	callstack 0
  1932  00005F                     _pA:
  1933                           	callstack 0
  1934  00005F                     	ds	1
  1935                           
  1936                           	psect	bssBANK0
  1937  000084                     __pbssBANK0:
  1938                           	callstack 0
  1939  000084                     _LDR:
  1940                           	callstack 0
  1941  000084                     	ds	4
  1942  000088                     _codTec:
  1943                           	callstack 0
  1944  000088                     	ds	4
  1945  00008C                     _saldo:
  1946                           	callstack 0
  1947  00008C                     	ds	2
  1948  00008E                     _codColor:
  1949                           	callstack 0
  1950  00008E                     	ds	2
  1951  000090                     _cond:
  1952                           	callstack 0
  1953  000090                     	ds	2
  1954  000092                     _yM:
  1955                           	callstack 0
  1956  000092                     	ds	2
  1957  000094                     _xM:
  1958                           	callstack 0
  1959  000094                     	ds	2
  1960  000096                     _index:
  1961                           	callstack 0
  1962  000096                     	ds	2
  1963  000098                     _v1:
  1964                           	callstack 0
  1965  000098                     	ds	1
  1966  000099                     _pB:
  1967                           	callstack 0
  1968  000099                     	ds	1
  1969                           
  1970                           	psect	dataBANK0
  1971  000060                     __pdataBANK0:
  1972                           	callstack 0
  1973  000060                     _comb:
  1974                           	callstack 0
  1975  000060                     	ds	16
  1976  000070                     _contChar:
  1977                           	callstack 0
  1978  000070                     	ds	2
  1979  000072                     _nC:
  1980                           	callstack 0
  1981  000072                     	ds	2
  1982  000074                     _sY:
  1983                           	callstack 0
  1984  000074                     	ds	2
  1985  000076                     _sX:
  1986                           	callstack 0
  1987  000076                     	ds	2
  1988  000078                     _prod:
  1989                           	callstack 0
  1990  000078                     	ds	12
  1991                           
  1992                           	psect	cstackCOMRAM
  1993  000001                     __pcstackCOMRAM:
  1994                           	callstack 0
  1995  000001                     ?_column:
  1996                           	callstack 0
  1997  000001                     ?_row:
  1998                           	callstack 0
  1999  000001                     ?___wmul:
  2000                           	callstack 0
  2001  000001                     ?___awdiv:
  2002                           	callstack 0
  2003  000001                     ?___awmod:
  2004                           	callstack 0
  2005  000001                     ?___lldiv:
  2006                           	callstack 0
  2007  000001                     row@portA:
  2008                           	callstack 0
  2009  000001                     DELAY_us@us_count:
  2010                           	callstack 0
  2011  000001                     ___wmul@multiplier:
  2012                           	callstack 0
  2013  000001                     ___awdiv@dividend:
  2014                           	callstack 0
  2015  000001                     ___awmod@dividend:
  2016                           	callstack 0
  2017  000001                     ___lldiv@dividend:
  2018                           	callstack 0
  2019                           
  2020                           ; 4 bytes @ 0x0
  2021  000001                     	ds	2
  2022  000003                     ??_row:
  2023  000003                     glcd_CmdWrite@cmd:
  2024                           	callstack 0
  2025  000003                     glcd_DataWrite@dat:
  2026                           	callstack 0
  2027  000003                     DELAY_ms@ms_count:
  2028                           	callstack 0
  2029  000003                     ___wmul@multiplicand:
  2030                           	callstack 0
  2031  000003                     ___awdiv@divisor:
  2032                           	callstack 0
  2033  000003                     ___awmod@divisor:
  2034                           	callstack 0
  2035                           
  2036                           ; 2 bytes @ 0x2
  2037  000003                     	ds	1
  2038  000004                     GLCD_GoToPage@pageNumber:
  2039                           	callstack 0
  2040  000004                     GLCD_DisplayLogo@ptr_Logo:
  2041                           	callstack 0
  2042                           
  2043                           ; 3 bytes @ 0x3
  2044  000004                     	ds	1
  2045  000005                     ??_GLCD_DisplayChar:
  2046  000005                     GLCD_GoToLine@lineNumber:
  2047                           	callstack 0
  2048  000005                     ___awdiv@counter:
  2049                           	callstack 0
  2050  000005                     ___awmod@counter:
  2051                           	callstack 0
  2052  000005                     ___wmul@product:
  2053                           	callstack 0
  2054  000005                     ___lldiv@divisor:
  2055                           	callstack 0
  2056                           
  2057                           ; 4 bytes @ 0x4
  2058  000005                     	ds	1
  2059  000006                     GLCD_Clear@cursor:
  2060                           	callstack 0
  2061  000006                     ___awdiv@sign:
  2062                           	callstack 0
  2063  000006                     ___awmod@sign:
  2064                           	callstack 0
  2065                           
  2066                           ; 1 bytes @ 0x5
  2067  000006                     	ds	1
  2068  000007                     GLCD_DisplayChar@dat:
  2069                           	callstack 0
  2070  000007                     GLCD_Clear@line:
  2071                           	callstack 0
  2072  000007                     GLCD_DisplayLogo@cursor:
  2073                           	callstack 0
  2074  000007                     ___awdiv@quotient:
  2075                           	callstack 0
  2076                           
  2077                           ; 2 bytes @ 0x6
  2078  000007                     	ds	1
  2079  000008                     GLCD_DisplayChar@i:
  2080                           	callstack 0
  2081  000008                     GLCD_DisplayLogo@line:
  2082                           	callstack 0
  2083                           
  2084                           ; 1 bytes @ 0x7
  2085  000008                     	ds	1
  2086  000009                     GLCD_DisplayChar@ch:
  2087                           	callstack 0
  2088  000009                     GLCD_SetCursor@CursorPosition:
  2089                           	callstack 0
  2090  000009                     ___lldiv@quotient:
  2091                           	callstack 0
  2092                           
  2093                           ; 4 bytes @ 0x8
  2094  000009                     	ds	1
  2095  00000A                     GLCD_SetCursor@lineNumber:
  2096                           	callstack 0
  2097  00000A                     GLCD_DisplayString@ptr:
  2098                           	callstack 0
  2099                           
  2100                           ; 2 bytes @ 0x9
  2101  00000A                     	ds	1
  2102  00000B                     GLCD_SetCursor@pageNumber:
  2103                           	callstack 0
  2104                           
  2105                           ; 1 bytes @ 0xA
  2106  00000B                     	ds	1
  2107  00000C                     
  2108                           ; 1 bytes @ 0xB
  2109  00000C                     	ds	1
  2110  00000D                     ___lldiv@counter:
  2111                           	callstack 0
  2112                           
  2113                           ; 1 bytes @ 0xC
  2114  00000D                     	ds	1
  2115  00000E                     GLCD_DisplayNumber@v_number_u32:
  2116                           	callstack 0
  2117                           
  2118                           ; 4 bytes @ 0xD
  2119  00000E                     	ds	4
  2120  000012                     GLCD_DisplayNumber@v_numOfDigitsToDisplay_u8:
  2121                           	callstack 0
  2122                           
  2123                           ; 1 bytes @ 0x11
  2124  000012                     	ds	1
  2125  000013                     ??_GLCD_DisplayNumber:
  2126                           
  2127                           ; 1 bytes @ 0x12
  2128  000013                     	ds	9
  2129  00001C                     GLCD_DisplayNumber@a:
  2130                           	callstack 0
  2131                           
  2132                           ; 10 bytes @ 0x1B
  2133  00001C                     	ds	10
  2134  000026                     _GLCD_DisplayNumber$528:
  2135                           	callstack 0
  2136                           
  2137                           ; 2 bytes @ 0x25
  2138  000026                     	ds	2
  2139  000028                     GLCD_DisplayNumber@v_numericSystem_u8:
  2140                           	callstack 0
  2141                           
  2142                           ; 1 bytes @ 0x27
  2143  000028                     	ds	1
  2144  000029                     GLCD_DisplayNumber@i:
  2145                           	callstack 0
  2146                           
  2147                           ; 1 bytes @ 0x28
  2148  000029                     	ds	1
  2149  00002A                     ?_GLCD_Printf:
  2150                           	callstack 0
  2151  00002A                     GLCD_Printf@argList:
  2152                           	callstack 0
  2153                           
  2154                           ; 2 bytes @ 0x29
  2155  00002A                     	ds	6
  2156  000030                     ??_GLCD_Printf:
  2157                           
  2158                           ; 1 bytes @ 0x2F
  2159  000030                     	ds	2
  2160  000032                     GLCD_Printf@str:
  2161                           	callstack 0
  2162                           
  2163                           ; 2 bytes @ 0x31
  2164  000032                     	ds	2
  2165  000034                     GLCD_Printf@v_num_s16:
  2166                           	callstack 0
  2167                           
  2168                           ; 2 bytes @ 0x33
  2169  000034                     	ds	2
  2170  000036                     GLCD_Printf@v_num_s32:
  2171                           	callstack 0
  2172                           
  2173                           ; 2 bytes @ 0x35
  2174  000036                     	ds	2
  2175  000038                     GLCD_Printf@v_num_u32:
  2176                           	callstack 0
  2177                           
  2178                           ; 4 bytes @ 0x37
  2179  000038                     	ds	4
  2180  00003C                     GLCD_Printf@v_num_u16:
  2181                           	callstack 0
  2182                           
  2183                           ; 2 bytes @ 0x3B
  2184  00003C                     	ds	2
  2185  00003E                     GLCD_Printf@ptr:
  2186                           	callstack 0
  2187                           
  2188                           ; 2 bytes @ 0x3D
  2189  00003E                     	ds	2
  2190  000040                     GLCD_Printf@ch:
  2191                           	callstack 0
  2192                           
  2193                           ; 1 bytes @ 0x3F
  2194  000040                     	ds	1
  2195  000041                     GLCD_Printf@v_numOfDigitsToDisp_u8:
  2196                           	callstack 0
  2197                           
  2198                           ; 1 bytes @ 0x40
  2199  000041                     	ds	1
  2200  000042                     GLCD_Printf@argp:
  2201                           	callstack 0
  2202                           
  2203                           ; 2 bytes @ 0x41
  2204  000042                     	ds	2
  2205  000044                     reset@i:
  2206                           	callstack 0
  2207  000044                     tapas@val:
  2208                           	callstack 0
  2209                           
  2210                           ; 4 bytes @ 0x43
  2211  000044                     	ds	4
  2212  000048                     tapas@y:
  2213                           	callstack 0
  2214                           
  2215                           ; 2 bytes @ 0x47
  2216  000048                     	ds	2
  2217  00004A                     tapas@x:
  2218                           	callstack 0
  2219                           
  2220                           ; 2 bytes @ 0x49
  2221  00004A                     	ds	2
  2222  00004C                     ??_main:
  2223                           
  2224                           ; 1 bytes @ 0x4B
  2225  00004C                     	ds	4
  2226  000050                     main@i:
  2227                           	callstack 0
  2228                           
  2229                           ; 2 bytes @ 0x4F
  2230  000050                     	ds	2
  2231  000052                     main@x:
  2232                           	callstack 0
  2233                           
  2234                           ; 2 bytes @ 0x51
  2235  000052                     	ds	2
  2236  000054                     main@product:
  2237                           	callstack 0
  2238                           
  2239                           ; 1 bytes @ 0x53
  2240  000054                     	ds	1
  2241  000055                     main@p:
  2242                           	callstack 0
  2243                           
  2244                           ; 1 bytes @ 0x54
  2245  000055                     	ds	1
  2246  000056                     main@y:
  2247                           	callstack 0
  2248                           
  2249                           ; 2 bytes @ 0x55
  2250  000056                     	ds	2
  2251                           
  2252 ;;
  2253 ;;Main: autosize = 0, tempsize = 4, incstack = 0, save=0
  2254 ;;
  2255 ;; *************** function _main *****************
  2256 ;; Defined at:
  2257 ;;		line 56 in file "main.c"
  2258 ;; Parameters:    Size  Location     Type
  2259 ;;		None
  2260 ;; Auto vars:     Size  Location     Type
  2261 ;;  p               1   84[COMRAM] unsigned char 
  2262 ;;  product         1   83[COMRAM] unsigned char 
  2263 ;;  y               2   85[COMRAM] int 
  2264 ;;  x               2   81[COMRAM] int 
  2265 ;;  i               2   79[COMRAM] int 
  2266 ;; Return value:  Size  Location     Type
  2267 ;;                  1    wreg      void 
  2268 ;; Registers used:
  2269 ;;		wreg, fsr2l, fsr2h, status,2, status,0, tblptrl, tblptrh, tblptru, prodl, prodh, cstack
  2270 ;; Tracked objects:
  2271 ;;		On entry : 0/0
  2272 ;;		On exit  : 0/0
  2273 ;;		Unchanged: 0/0
  2274 ;; Data sizes:     COMRAM   BANK0   BANK1   BANK2   BANK3   BANK4   BANK5   BANK6   BANK7
  2275 ;;      Params:         0       0       0       0       0       0       0       0       0
  2276 ;;      Locals:         8       0       0       0       0       0       0       0       0
  2277 ;;      Temps:          4       0       0       0       0       0       0       0       0
  2278 ;;      Totals:        12       0       0       0       0       0       0       0       0
  2279 ;;Total ram usage:       12 bytes
  2280 ;; Hardware stack levels required when called:    9
  2281 ;; This function calls:
  2282 ;;		_GLCD_Clear
  2283 ;;		_GLCD_DisplayLogo
  2284 ;;		_GLCD_Init
  2285 ;;		_GLCD_Printf
  2286 ;;		_GLCD_SetCursor
  2287 ;;		___wmul
  2288 ;;		_column
  2289 ;;		_reset
  2290 ;;		_row
  2291 ;;		_tapas
  2292 ;; This function is called by:
  2293 ;;		Startup code after reset
  2294 ;; This function uses a non-reentrant model
  2295 ;;
  2296                           
  2297                           	psect	text0
  2298  007556                     __ptext0:
  2299                           	callstack 0
  2300  007556                     _main:
  2301                           	callstack 22
  2302  007556                     
  2303                           ;main.c: 58:     xSC=sX;
  2304  007556  0E00               	movlw	0
  2305  007558  0100               	movlb	0	; () banked
  2306  00755A  6F9D               	movwf	(_xSC+1)& (0+255),b
  2307  00755C  0E28               	movlw	40
  2308  00755E  6F9C               	movwf	_xSC& (0+255),b
  2309                           
  2310                           ;main.c: 59:     ySC=sY;
  2311  007560  0E00               	movlw	0
  2312  007562  6F9B               	movwf	(_ySC+1)& (0+255),b
  2313  007564  0E01               	movlw	1
  2314  007566  6F9A               	movwf	_ySC& (0+255),b
  2315                           
  2316                           ;main.c: 61:     TRISA=0x21;
  2317  007568  0E21               	movlw	33
  2318  00756A  6E92               	movwf	146,c	;volatile
  2319                           
  2320                           ;main.c: 64:     TRISE=0x07;
  2321  00756C  0E07               	movlw	7
  2322  00756E  6E96               	movwf	150,c	;volatile
  2323  007570                     
  2324                           ; BSR set to: 0
  2325                           ;main.c: 67:     TRISC=0xFF;
  2326  007570  6894               	setf	148,c	;volatile
  2327                           
  2328                           ;main.c: 69:     ADCON1=0x0E;
  2329  007572  0E0E               	movlw	14
  2330  007574  6EC1               	movwf	193,c	;volatile
  2331                           
  2332                           ;main.c: 70:     ADCON0=0x01;
  2333  007576  0E01               	movlw	1
  2334  007578  6EC2               	movwf	194,c	;volatile
  2335                           
  2336                           ;main.c: 71:     ADCON2=0xB1;
  2337  00757A  0EB1               	movlw	177
  2338  00757C  6EC0               	movwf	192,c	;volatile
  2339  00757E                     
  2340                           ; BSR set to: 0
  2341                           ;main.c: 73:     GLCD_Init();
  2342  00757E  EC81  F033         	call	_GLCD_Init	;wreg free
  2343  007582                     l2684:
  2344                           
  2345                           ;main.c: 76:         GLCD_DisplayLogo(LogoBitMap[6]);
  2346  007582  0E85               	movlw	low (_LogoBitMap+6)
  2347  007584  6EF6               	movwf	tblptrl,c
  2348  007586  0E79               	movlw	high (_LogoBitMap+6)
  2349  007588  6EF7               	movwf	tblptrh,c
  2350  00758A                     	if	0	;tblptru may be non-zero
  2351  00758A                     	endif
  2352  00758A                     	if	0	;tblptru may be non-zero
  2353  00758A                     	endif
  2354  00758A  0008               	tblrd		*
  2355  00758C  50F5               	movf	tablat,w,c
  2356  00758E  6E4C               	movwf	??_main^0,c
  2357  007590  6A4D               	clrf	(??_main+1)^0,c
  2358  007592  6A4E               	clrf	(??_main+2)^0,c
  2359  007594  C04C  F004         	movff	??_main,GLCD_DisplayLogo@ptr_Logo
  2360  007598  C04D  F005         	movff	??_main+1,GLCD_DisplayLogo@ptr_Logo+1
  2361  00759C  C04E  F006         	movff	??_main+2,GLCD_DisplayLogo@ptr_Logo+2
  2362  0075A0  EC58  F034         	call	_GLCD_DisplayLogo	;wreg free
  2363  0075A4                     
  2364                           ;main.c: 80:         if(PORTCbits.RC0==1)
  2365  0075A4  A082               	btfss	130,0,c	;volatile
  2366  0075A6  EFD7  F03A         	goto	u1861
  2367  0075AA  EFD9  F03A         	goto	u1860
  2368  0075AE                     u1861:
  2369  0075AE  EFC1  F03A         	goto	l2684
  2370  0075B2                     u1860:
  2371  0075B2                     l2688:
  2372                           
  2373                           ;main.c: 85:                 ADCON0=0x01;
  2374  0075B2  0E01               	movlw	1
  2375  0075B4  6EC2               	movwf	194,c	;volatile
  2376                           
  2377                           ;main.c: 86:                 ADCON2=0xB1;
  2378  0075B6  0EB1               	movlw	177
  2379  0075B8  6EC0               	movwf	192,c	;volatile
  2380  0075BA                     
  2381                           ;main.c: 87:                 ADCON0bits.GODONE=1;
  2382  0075BA  82C2               	bsf	194,1,c	;volatile
  2383  0075BC                     
  2384                           ;main.c: 89:                 if(ADCON0bits.GODONE==1){
  2385  0075BC  A2C2               	btfss	194,1,c	;volatile
  2386  0075BE  EFE3  F03A         	goto	u1871
  2387  0075C2  EFE5  F03A         	goto	u1870
  2388  0075C6                     u1871:
  2389  0075C6  EFF9  F03A         	goto	l2696
  2390  0075CA                     u1870:
  2391  0075CA                     
  2392                           ;main.c: 90:                     LDR=(ADRESH*255)+(ADRESL);
  2393  0075CA  50C4               	movf	196,w,c	;volatile
  2394  0075CC  0DFF               	mullw	255
  2395  0075CE  CFF3 F04C          	movff	prodl,??_main
  2396  0075D2  CFF4 F04D          	movff	prodh,??_main+1
  2397  0075D6  50C3               	movf	195,w,c	;volatile
  2398  0075D8  264C               	addwf	??_main^0,f,c
  2399  0075DA  0E00               	movlw	0
  2400  0075DC  224D               	addwfc	(??_main+1)^0,f,c
  2401  0075DE  C04C  F084         	movff	??_main,_LDR
  2402  0075E2  C04D  F085         	movff	??_main+1,_LDR+1
  2403  0075E6  0100               	movlb	0	; () banked
  2404  0075E8  0E00               	movlw	0
  2405  0075EA  BF85               	btfsc	(_LDR+1)& (0+255),7,b
  2406  0075EC  0EFF               	movlw	-1
  2407  0075EE  6F86               	movwf	(_LDR+2)& (0+255),b
  2408  0075F0  6F87               	movwf	(_LDR+3)& (0+255),b
  2409  0075F2                     l2696:
  2410                           
  2411                           ;main.c: 93:                 GLCD_SetCursor(0,0);
  2412  0075F2  0E00               	movlw	0
  2413  0075F4  6E09               	movwf	GLCD_SetCursor@CursorPosition^0,c
  2414  0075F6  0E00               	movlw	0
  2415  0075F8  EC9A  F034         	call	_GLCD_SetCursor
  2416  0075FC                     
  2417                           ;main.c: 94:                 GLCD_Printf("LDR: %d",LDR);
  2418  0075FC  0EE0               	movlw	low STR_1
  2419  0075FE  6E2A               	movwf	GLCD_Printf@argList^0,c
  2420  007600  0E7F               	movlw	high STR_1
  2421  007602  6E2B               	movwf	(GLCD_Printf@argList+1)^0,c
  2422  007604  C084  F02C         	movff	_LDR,?_GLCD_Printf+2
  2423  007608  C085  F02D         	movff	_LDR+1,?_GLCD_Printf+3
  2424  00760C  C086  F02E         	movff	_LDR+2,?_GLCD_Printf+4
  2425  007610  C087  F02F         	movff	_LDR+3,?_GLCD_Printf+5
  2426  007614  ECB7  F038         	call	_GLCD_Printf	;wreg free
  2427  007618                     
  2428                           ;main.c: 95:                 tapas(LDR,5,0);
  2429  007618  C084  F044         	movff	_LDR,tapas@val
  2430  00761C  C085  F045         	movff	_LDR+1,tapas@val+1
  2431  007620  C086  F046         	movff	_LDR+2,tapas@val+2
  2432  007624  C087  F047         	movff	_LDR+3,tapas@val+3
  2433  007628  0E00               	movlw	0
  2434  00762A  6E49               	movwf	(tapas@y+1)^0,c
  2435  00762C  0E05               	movlw	5
  2436  00762E  6E48               	movwf	tapas@y^0,c
  2437  007630  0E00               	movlw	0
  2438  007632  6E4B               	movwf	(tapas@x+1)^0,c
  2439  007634  0E00               	movlw	0
  2440  007636  6E4A               	movwf	tapas@x^0,c
  2441  007638  EC5D  F036         	call	_tapas	;wreg free
  2442  00763C                     
  2443                           ;main.c: 97:                 ADCON0bits.ADON=0;
  2444  00763C  90C2               	bcf	194,0,c	;volatile
  2445  00763E                     
  2446                           ;main.c: 101:                 pB=~pA;
  2447  00763E  505F               	movf	_pA^0,w,c
  2448  007640  0AFF               	xorlw	255
  2449  007642  0100               	movlb	0	; () banked
  2450  007644  6F99               	movwf	_pB& (0+255),b
  2451  007646                     
  2452                           ; BSR set to: 0
  2453                           ;main.c: 102:                 PORTA=pB;
  2454  007646  C099  FF80         	movff	_pB,3968	;volatile
  2455  00764A                     
  2456                           ; BSR set to: 0
  2457                           ;main.c: 108:                 ayM=column();
  2458  00764A  ECE6  F033         	call	_column	;wreg free
  2459  00764E  C001  F05C         	movff	?_column,_ayM
  2460  007652  C002  F05D         	movff	?_column+1,_ayM+1
  2461  007656                     
  2462                           ;main.c: 111:                 xM=row(pA);
  2463  007656  C05F  F001         	movff	_pA,row@portA
  2464  00765A  6A02               	clrf	(row@portA+1)^0,c
  2465  00765C  EC1F  F034         	call	_row	;wreg free
  2466  007660  C001  F094         	movff	?_row,_xM
  2467  007664  C002  F095         	movff	?_row+1,_xM+1
  2468  007668                     
  2469                           ;main.c: 112:                 yM=(ayM-1);
  2470  007668  0EFF               	movlw	255
  2471  00766A  245C               	addwf	_ayM^0,w,c
  2472  00766C  0100               	movlb	0	; () banked
  2473  00766E  6F92               	movwf	_yM& (0+255),b
  2474  007670  0EFF               	movlw	255
  2475  007672  205D               	addwfc	(_ayM+1)^0,w,c
  2476  007674  6F93               	movwf	(_yM+1)& (0+255),b
  2477  007676                     
  2478                           ; BSR set to: 0
  2479                           ;main.c: 114:                 cond=ayM;
  2480  007676  C05C  F090         	movff	_ayM,_cond
  2481  00767A  C05D  F091         	movff	_ayM+1,_cond+1
  2482  00767E                     
  2483                           ; BSR set to: 0
  2484                           ;main.c: 116:                 GLCD_SetCursor(1,0);
  2485  00767E  0E00               	movlw	0
  2486  007680  6E09               	movwf	GLCD_SetCursor@CursorPosition^0,c
  2487  007682  0E01               	movlw	1
  2488  007684  EC9A  F034         	call	_GLCD_SetCursor
  2489  007688                     
  2490                           ;main.c: 117:                 GLCD_Printf("Code: ");
  2491  007688  0EF0               	movlw	low STR_2
  2492  00768A  6E2A               	movwf	GLCD_Printf@argList^0,c
  2493  00768C  0E7F               	movlw	high STR_2
  2494  00768E  6E2B               	movwf	(GLCD_Printf@argList+1)^0,c
  2495  007690  ECB7  F038         	call	_GLCD_Printf	;wreg free
  2496  007694                     
  2497                           ;main.c: 119:                 if(ayM>0){
  2498  007694  BE5D               	btfsc	(_ayM+1)^0,7,c
  2499  007696  EF55  F03B         	goto	u1881
  2500  00769A  505D               	movf	(_ayM+1)^0,w,c
  2501  00769C  E108               	bnz	u1880
  2502  00769E  045C               	decf	_ayM^0,w,c
  2503  0076A0  A0D8               	btfss	status,0,c
  2504  0076A2  EF55  F03B         	goto	u1881
  2505  0076A6  EF57  F03B         	goto	u1880
  2506  0076AA                     u1881:
  2507  0076AA  EF73  F03C         	goto	l2798
  2508  0076AE                     u1880:
  2509  0076AE                     
  2510                           ;main.c: 120:                     if(xSC<(sX+(nC*6)))
  2511  0076AE  0100               	movlb	0	; () banked
  2512  0076B0  BF9D               	btfsc	(_xSC+1)& (0+255),7,b
  2513  0076B2  EF66  F03B         	goto	u1890
  2514  0076B6  519D               	movf	(_xSC+1)& (0+255),w,b
  2515  0076B8  E107               	bnz	u1891
  2516  0076BA  0E40               	movlw	64
  2517  0076BC  5D9C               	subwf	_xSC& (0+255),w,b
  2518  0076BE  B0D8               	btfsc	status,0,c
  2519  0076C0  EF64  F03B         	goto	u1891
  2520  0076C4  EF66  F03B         	goto	u1890
  2521  0076C8                     u1891:
  2522  0076C8  EFB5  F03B         	goto	l2744
  2523  0076CC                     u1890:
  2524  0076CC                     
  2525                           ; BSR set to: 0
  2526                           ;main.c: 121:                     {;main.c: 122:                         GLCD_SetCursor(
      +                          ySC,xSC);
  2527  0076CC  C09C  F009         	movff	_xSC,GLCD_SetCursor@CursorPosition
  2528  0076D0  519A               	movf	_ySC& (0+255),w,b
  2529  0076D2  EC9A  F034         	call	_GLCD_SetCursor
  2530  0076D6                     
  2531                           ;main.c: 123:                         valM=comb[xM][yM];
  2532  0076D6  C094  F04C         	movff	_xM,??_main
  2533  0076DA  C095  F04D         	movff	_xM+1,??_main+1
  2534  0076DE  90D8               	bcf	status,0,c
  2535  0076E0  364C               	rlcf	??_main^0,f,c
  2536  0076E2  364D               	rlcf	(??_main+1)^0,f,c
  2537  0076E4  90D8               	bcf	status,0,c
  2538  0076E6  364C               	rlcf	??_main^0,f,c
  2539  0076E8  364D               	rlcf	(??_main+1)^0,f,c
  2540  0076EA  0E60               	movlw	low _comb
  2541  0076EC  6E4E               	movwf	(??_main+2)^0,c
  2542  0076EE  0E00               	movlw	high _comb
  2543  0076F0  6E4F               	movwf	(??_main+3)^0,c
  2544  0076F2  504C               	movf	??_main^0,w,c
  2545  0076F4  264E               	addwf	(??_main+2)^0,f,c
  2546  0076F6  504D               	movf	(??_main+1)^0,w,c
  2547  0076F8  224F               	addwfc	(??_main+3)^0,f,c
  2548  0076FA  0100               	movlb	0	; () banked
  2549  0076FC  5192               	movf	_yM& (0+255),w,b
  2550  0076FE  244E               	addwf	(??_main+2)^0,w,c
  2551  007700  6ED9               	movwf	fsr2l,c
  2552  007702  5193               	movf	(_yM+1)& (0+255),w,b
  2553  007704  204F               	addwfc	(??_main+3)^0,w,c
  2554  007706  6EDA               	movwf	fsr2h,c
  2555  007708  50DF               	movf	indf2,w,c
  2556  00770A  6E5E               	movwf	_valM^0,c
  2557  00770C                     
  2558                           ; BSR set to: 0
  2559                           ;main.c: 124:                         GLCD_Printf("%c",valM);
  2560  00770C  0EFB               	movlw	low STR_3
  2561  00770E  6E2A               	movwf	GLCD_Printf@argList^0,c
  2562  007710  0E7F               	movlw	high STR_3
  2563  007712  6E2B               	movwf	(GLCD_Printf@argList+1)^0,c
  2564  007714  C05E  F02C         	movff	_valM,?_GLCD_Printf+2
  2565  007718  6A2D               	clrf	(?_GLCD_Printf+3)^0,c
  2566  00771A  ECB7  F038         	call	_GLCD_Printf	;wreg free
  2567  00771E                     
  2568                           ;main.c: 127:                         ySC=1;
  2569  00771E  0E00               	movlw	0
  2570  007720  0100               	movlb	0	; () banked
  2571  007722  6F9B               	movwf	(_ySC+1)& (0+255),b
  2572  007724  0E01               	movlw	1
  2573  007726  6F9A               	movwf	_ySC& (0+255),b
  2574  007728                     
  2575                           ; BSR set to: 0
  2576                           ;main.c: 128:                         xSC+=6;
  2577  007728  0E06               	movlw	6
  2578  00772A  279C               	addwf	_xSC& (0+255),f,b
  2579  00772C  0E00               	movlw	0
  2580  00772E  239D               	addwfc	(_xSC+1)& (0+255),f,b
  2581  007730                     
  2582                           ; BSR set to: 0
  2583                           ;main.c: 131:                         codTec[contChar-1]=valM;
  2584  007730  0E87               	movlw	low (_codTec+65535)
  2585  007732  2570               	addwf	_contChar& (0+255),w,b
  2586  007734  6ED9               	movwf	fsr2l,c
  2587  007736  0E00               	movlw	high (_codTec+65535)
  2588  007738  2171               	addwfc	(_contChar+1)& (0+255),w,b
  2589  00773A  6EDA               	movwf	fsr2h,c
  2590  00773C  C05E  FFDF         	movff	_valM,indf2
  2591  007740                     
  2592                           ; BSR set to: 0
  2593                           ;main.c: 134:                         contChar++;
  2594  007740  4B70               	infsnz	_contChar& (0+255),f,b
  2595  007742  2B71               	incf	(_contChar+1)& (0+255),f,b
  2596  007744                     l2738:
  2597                           
  2598                           ; BSR set to: 0
  2599                           ;main.c: 137:                             ayM=column();
  2600  007744  ECE6  F033         	call	_column	;wreg free
  2601  007748  C001  F05C         	movff	?_column,_ayM
  2602  00774C  C002  F05D         	movff	?_column+1,_ayM+1
  2603  007750                     
  2604                           ;main.c: 138:                             if(cond!=ayM){
  2605  007750  505C               	movf	_ayM^0,w,c
  2606  007752  0100               	movlb	0	; () banked
  2607  007754  1990               	xorwf	_cond& (0+255),w,b
  2608  007756  E109               	bnz	u1900
  2609  007758  505D               	movf	(_ayM+1)^0,w,c
  2610  00775A  1991               	xorwf	(_cond+1)& (0+255),w,b
  2611  00775C  B4D8               	btfsc	status,2,c
  2612  00775E  EFB3  F03B         	goto	u1901
  2613  007762  EFB5  F03B         	goto	u1900
  2614  007766                     u1901:
  2615  007766  EFA2  F03B         	goto	l2738
  2616  00776A                     u1900:
  2617  00776A                     l2744:
  2618                           
  2619                           ; BSR set to: 0
  2620                           ;main.c: 143:                     if((contChar)>4){
  2621  00776A  BF71               	btfsc	(_contChar+1)& (0+255),7,b
  2622  00776C  EFC1  F03B         	goto	u1911
  2623  007770  5171               	movf	(_contChar+1)& (0+255),w,b
  2624  007772  E109               	bnz	u1910
  2625  007774  0E05               	movlw	5
  2626  007776  5D70               	subwf	_contChar& (0+255),w,b
  2627  007778  A0D8               	btfss	status,0,c
  2628  00777A  EFC1  F03B         	goto	u1911
  2629  00777E  EFC3  F03B         	goto	u1910
  2630  007782                     u1911:
  2631  007782  EF73  F03C         	goto	l2798
  2632  007786                     u1910:
  2633  007786                     
  2634                           ; BSR set to: 0
  2635                           ;main.c: 144:                         int i=0;
  2636  007786  0E00               	movlw	0
  2637  007788  6E51               	movwf	(main@i+1)^0,c
  2638  00778A  0E00               	movlw	0
  2639  00778C  6E50               	movwf	main@i^0,c
  2640  00778E                     
  2641                           ; BSR set to: 0
  2642                           ;main.c: 145:                         GLCD_SetCursor(3,0);
  2643  00778E  0E00               	movlw	0
  2644  007790  6E09               	movwf	GLCD_SetCursor@CursorPosition^0,c
  2645  007792  0E03               	movlw	3
  2646  007794  EC9A  F034         	call	_GLCD_SetCursor
  2647  007798                     
  2648                           ;main.c: 146:                         for(int x=0;x<4;x++){
  2649  007798  0E00               	movlw	0
  2650  00779A  6E53               	movwf	(main@x+1)^0,c
  2651  00779C  0E00               	movlw	0
  2652  00779E  6E52               	movwf	main@x^0,c
  2653  0077A0                     l2756:
  2654                           
  2655                           ;main.c: 147:                             for(int y=0;y<3;y++){
  2656  0077A0  0E00               	movlw	0
  2657  0077A2  6E57               	movwf	(main@y+1)^0,c
  2658  0077A4  0E00               	movlw	0
  2659  0077A6  6E56               	movwf	main@y^0,c
  2660  0077A8                     l2762:
  2661                           
  2662                           ;main.c: 148:                                 char product=prod[x][y];
  2663  0077A8  C052  F001         	movff	main@x,___wmul@multiplier
  2664  0077AC  C053  F002         	movff	main@x+1,___wmul@multiplier+1
  2665  0077B0  0E00               	movlw	0
  2666  0077B2  6E04               	movwf	(___wmul@multiplicand+1)^0,c
  2667  0077B4  0E03               	movlw	3
  2668  0077B6  6E03               	movwf	___wmul@multiplicand^0,c
  2669  0077B8  ECC1  F032         	call	___wmul	;wreg free
  2670  0077BC  0E78               	movlw	low _prod
  2671  0077BE  6E4C               	movwf	??_main^0,c
  2672  0077C0  0E00               	movlw	high _prod
  2673  0077C2  6E4D               	movwf	(??_main+1)^0,c
  2674  0077C4  5001               	movf	?___wmul^0,w,c
  2675  0077C6  264C               	addwf	??_main^0,f,c
  2676  0077C8  5002               	movf	(?___wmul+1)^0,w,c
  2677  0077CA  224D               	addwfc	(??_main+1)^0,f,c
  2678  0077CC  5056               	movf	main@y^0,w,c
  2679  0077CE  244C               	addwf	??_main^0,w,c
  2680  0077D0  6ED9               	movwf	fsr2l,c
  2681  0077D2  5057               	movf	(main@y+1)^0,w,c
  2682  0077D4  204D               	addwfc	(??_main+1)^0,w,c
  2683  0077D6  6EDA               	movwf	fsr2h,c
  2684  0077D8  50DF               	movf	indf2,w,c
  2685  0077DA  6E54               	movwf	main@product^0,c
  2686  0077DC                     
  2687                           ;main.c: 149:                                 char p=codTec[i];
  2688  0077DC  0E88               	movlw	low _codTec
  2689  0077DE  2450               	addwf	main@i^0,w,c
  2690  0077E0  6ED9               	movwf	fsr2l,c
  2691  0077E2  0E00               	movlw	high _codTec
  2692  0077E4  2051               	addwfc	(main@i+1)^0,w,c
  2693  0077E6  6EDA               	movwf	fsr2h,c
  2694  0077E8  50DF               	movf	indf2,w,c
  2695  0077EA  6E55               	movwf	main@p^0,c
  2696  0077EC                     
  2697                           ;main.c: 150:                                 if(y>2){
  2698  0077EC  BE57               	btfsc	(main@y+1)^0,7,c
  2699  0077EE  EF02  F03C         	goto	u1921
  2700  0077F2  5057               	movf	(main@y+1)^0,w,c
  2701  0077F4  E109               	bnz	u1920
  2702  0077F6  0E03               	movlw	3
  2703  0077F8  5C56               	subwf	main@y^0,w,c
  2704  0077FA  A0D8               	btfss	status,0,c
  2705  0077FC  EF02  F03C         	goto	u1921
  2706  007800  EF04  F03C         	goto	u1920
  2707  007804                     u1921:
  2708  007804  EF06  F03C         	goto	l2770
  2709  007808                     u1920:
  2710  007808                     
  2711                           ;main.c: 151:                                     i++;
  2712  007808  4A50               	infsnz	main@i^0,f,c
  2713  00780A  2A51               	incf	(main@i+1)^0,f,c
  2714  00780C                     l2770:
  2715                           
  2716                           ;main.c: 153:                                 if(p!=product){
  2717  00780C  5054               	movf	main@product^0,w,c
  2718  00780E  1855               	xorwf	main@p^0,w,c
  2719  007810  B4D8               	btfsc	status,2,c
  2720  007812  EF0D  F03C         	goto	u1931
  2721  007816  EF0F  F03C         	goto	u1930
  2722  00781A                     u1931:
  2723  00781A  EF3A  F03C         	goto	l2782
  2724  00781E                     u1930:
  2725  00781E                     
  2726                           ;main.c: 154:                                     GLCD_Printf("No Prod");
  2727  00781E  0EE8               	movlw	low STR_4
  2728  007820  6E2A               	movwf	GLCD_Printf@argList^0,c
  2729  007822  0E7F               	movlw	high STR_4
  2730  007824  6E2B               	movwf	(GLCD_Printf@argList+1)^0,c
  2731  007826  ECB7  F038         	call	_GLCD_Printf	;wreg free
  2732  00782A                     
  2733                           ;main.c: 155:                                     GLCD_SetCursor(3,0);
  2734  00782A  0E00               	movlw	0
  2735  00782C  6E09               	movwf	GLCD_SetCursor@CursorPosition^0,c
  2736  00782E  0E03               	movlw	3
  2737  007830  EC9A  F034         	call	_GLCD_SetCursor
  2738  007834                     
  2739                           ;main.c: 156:                                     GLCD_Printf("%c",product);
  2740  007834  0EFB               	movlw	low STR_3
  2741  007836  6E2A               	movwf	GLCD_Printf@argList^0,c
  2742  007838  0E7F               	movlw	high STR_3
  2743  00783A  6E2B               	movwf	(GLCD_Printf@argList+1)^0,c
  2744  00783C  C054  F02C         	movff	main@product,?_GLCD_Printf+2
  2745  007840  6A2D               	clrf	(?_GLCD_Printf+3)^0,c
  2746  007842  ECB7  F038         	call	_GLCD_Printf	;wreg free
  2747  007846                     
  2748                           ;main.c: 157:                                     GLCD_Printf("%c",p);
  2749  007846  0EFB               	movlw	low STR_3
  2750  007848  6E2A               	movwf	GLCD_Printf@argList^0,c
  2751  00784A  0E7F               	movlw	high STR_3
  2752  00784C  6E2B               	movwf	(GLCD_Printf@argList+1)^0,c
  2753  00784E  C055  F02C         	movff	main@p,?_GLCD_Printf+2
  2754  007852  6A2D               	clrf	(?_GLCD_Printf+3)^0,c
  2755  007854  ECB7  F038         	call	_GLCD_Printf	;wreg free
  2756  007858                     l2780:
  2757                           
  2758                           ;main.c: 158:                                     _delay((unsigned long)((800)*(16000000
      +                          /4000.0)));
  2759  007858  0E11               	movlw	17
  2760  00785A  6E4D               	movwf	(??_main+1)^0,c
  2761  00785C  0E3C               	movlw	60
  2762  00785E  6E4C               	movwf	??_main^0,c
  2763  007860  0ECB               	movlw	203
  2764  007862                     u2137:
  2765  007862  2EE8               	decfsz	wreg,f,c
  2766  007864  D7FE               	bra	u2137
  2767  007866  2E4C               	decfsz	??_main^0,f,c
  2768  007868  D7FC               	bra	u2137
  2769  00786A  2E4D               	decfsz	(??_main+1)^0,f,c
  2770  00786C  D7FA               	bra	u2137
  2771  00786E  F000               	nop	
  2772                           
  2773                           ;main.c: 159:                                 } else {
  2774  007870  EF53  F03C         	goto	l2790
  2775  007874                     l2782:
  2776                           
  2777                           ;main.c: 160:                                     GLCD_SetCursor(3,0);
  2778  007874  0E00               	movlw	0
  2779  007876  6E09               	movwf	GLCD_SetCursor@CursorPosition^0,c
  2780  007878  0E03               	movlw	3
  2781  00787A  EC9A  F034         	call	_GLCD_SetCursor
  2782  00787E                     
  2783                           ;main.c: 161:                                     GLCD_Printf("%c",product);
  2784  00787E  0EFB               	movlw	low STR_3
  2785  007880  6E2A               	movwf	GLCD_Printf@argList^0,c
  2786  007882  0E7F               	movlw	high STR_3
  2787  007884  6E2B               	movwf	(GLCD_Printf@argList+1)^0,c
  2788  007886  C054  F02C         	movff	main@product,?_GLCD_Printf+2
  2789  00788A  6A2D               	clrf	(?_GLCD_Printf+3)^0,c
  2790  00788C  ECB7  F038         	call	_GLCD_Printf	;wreg free
  2791  007890                     
  2792                           ;main.c: 162:                                     GLCD_Printf("%c",p);
  2793  007890  0EFB               	movlw	low STR_3
  2794  007892  6E2A               	movwf	GLCD_Printf@argList^0,c
  2795  007894  0E7F               	movlw	high STR_3
  2796  007896  6E2B               	movwf	(GLCD_Printf@argList+1)^0,c
  2797  007898  C055  F02C         	movff	main@p,?_GLCD_Printf+2
  2798  00789C  6A2D               	clrf	(?_GLCD_Printf+3)^0,c
  2799  00789E  ECB7  F038         	call	_GLCD_Printf	;wreg free
  2800  0078A2  EF2C  F03C         	goto	l2780
  2801  0078A6                     l2790:
  2802                           
  2803                           ;main.c: 175:                             }
  2804  0078A6  4A56               	infsnz	main@y^0,f,c
  2805  0078A8  2A57               	incf	(main@y+1)^0,f,c
  2806  0078AA  BE57               	btfsc	(main@y+1)^0,7,c
  2807  0078AC  EF61  F03C         	goto	u1941
  2808  0078B0  5057               	movf	(main@y+1)^0,w,c
  2809  0078B2  E109               	bnz	u1940
  2810  0078B4  0E03               	movlw	3
  2811  0078B6  5C56               	subwf	main@y^0,w,c
  2812  0078B8  A0D8               	btfss	status,0,c
  2813  0078BA  EF61  F03C         	goto	u1941
  2814  0078BE  EF63  F03C         	goto	u1940
  2815  0078C2                     u1941:
  2816  0078C2  EFD4  F03B         	goto	l2762
  2817  0078C6                     u1940:
  2818  0078C6                     
  2819                           ;main.c: 176:                         }
  2820  0078C6  4A52               	infsnz	main@x^0,f,c
  2821  0078C8  2A53               	incf	(main@x+1)^0,f,c
  2822  0078CA  BE53               	btfsc	(main@x+1)^0,7,c
  2823  0078CC  EF71  F03C         	goto	u1951
  2824  0078D0  5053               	movf	(main@x+1)^0,w,c
  2825  0078D2  E109               	bnz	u1950
  2826  0078D4  0E04               	movlw	4
  2827  0078D6  5C52               	subwf	main@x^0,w,c
  2828  0078D8  A0D8               	btfss	status,0,c
  2829  0078DA  EF71  F03C         	goto	u1951
  2830  0078DE  EF73  F03C         	goto	u1950
  2831  0078E2                     u1951:
  2832  0078E2  EFD0  F03B         	goto	l2756
  2833  0078E6                     u1950:
  2834  0078E6                     l2798:
  2835                           
  2836                           ;main.c: 180:                 GLCD_SetCursor(2,0);
  2837  0078E6  0E00               	movlw	0
  2838  0078E8  6E09               	movwf	GLCD_SetCursor@CursorPosition^0,c
  2839  0078EA  0E02               	movlw	2
  2840  0078EC  EC9A  F034         	call	_GLCD_SetCursor
  2841  0078F0                     
  2842                           ;main.c: 181:                 GLCD_Printf("Cont: %1d",(contChar));
  2843  0078F0  0ED6               	movlw	low STR_9
  2844  0078F2  6E2A               	movwf	GLCD_Printf@argList^0,c
  2845  0078F4  0E7F               	movlw	high STR_9
  2846  0078F6  6E2B               	movwf	(GLCD_Printf@argList+1)^0,c
  2847  0078F8  C070  F02C         	movff	_contChar,?_GLCD_Printf+2
  2848  0078FC  C071  F02D         	movff	_contChar+1,?_GLCD_Printf+3
  2849  007900  ECB7  F038         	call	_GLCD_Printf	;wreg free
  2850  007904                     
  2851                           ;main.c: 200:                 if(PORTCbits.RC0==1){
  2852  007904  A082               	btfss	130,0,c	;volatile
  2853  007906  EF87  F03C         	goto	u1961
  2854  00790A  EF89  F03C         	goto	u1960
  2855  00790E                     u1961:
  2856  00790E  EF98  F03C         	goto	l113
  2857  007912                     u1960:
  2858  007912                     
  2859                           ;main.c: 201:                     GLCD_Clear();
  2860  007912  ECAE  F033         	call	_GLCD_Clear	;wreg free
  2861                           
  2862                           ;main.c: 202:                     GLCD_SetCursor(0,0);
  2863  007916  0E00               	movlw	0
  2864  007918  6E09               	movwf	GLCD_SetCursor@CursorPosition^0,c
  2865  00791A  0E00               	movlw	0
  2866  00791C  EC9A  F034         	call	_GLCD_SetCursor
  2867  007920                     
  2868                           ;main.c: 203:                     GLCD_Printf("OFF");
  2869  007920  0EF7               	movlw	low STR_10
  2870  007922  6E2A               	movwf	GLCD_Printf@argList^0,c
  2871  007924  0E7F               	movlw	high STR_10
  2872  007926  6E2B               	movwf	(GLCD_Printf@argList+1)^0,c
  2873  007928  ECB7  F038         	call	_GLCD_Printf	;wreg free
  2874                           
  2875                           ;main.c: 204:                     break;
  2876  00792C  EFC1  F03A         	goto	l2684
  2877  007930                     l113:
  2878                           
  2879                           ;main.c: 207:                 if(PORTCbits.RC1==1){
  2880  007930  A282               	btfss	130,1,c	;volatile
  2881  007932  EF9D  F03C         	goto	u1971
  2882  007936  EF9F  F03C         	goto	u1970
  2883  00793A                     u1971:
  2884  00793A  EFA1  F03C         	goto	l2810
  2885  00793E                     u1970:
  2886  00793E                     
  2887                           ;main.c: 208:                     reset();
  2888  00793E  EC55  F033         	call	_reset	;wreg free
  2889  007942                     l2810:
  2890                           
  2891                           ;main.c: 211:                 pA=(pA<<1);
  2892  007942  505F               	movf	_pA^0,w,c
  2893  007944  245F               	addwf	_pA^0,w,c
  2894  007946  6E5F               	movwf	_pA^0,c
  2895  007948                     
  2896                           ;main.c: 213:                 index++;
  2897  007948  0100               	movlb	0	; () banked
  2898  00794A  4B96               	infsnz	_index& (0+255),f,b
  2899  00794C  2B97               	incf	(_index+1)& (0+255),f,b
  2900  00794E                     
  2901                           ; BSR set to: 0
  2902                           ;main.c: 214:                 if(index>3){
  2903  00794E  BF97               	btfsc	(_index+1)& (0+255),7,b
  2904  007950  EFB3  F03C         	goto	u1981
  2905  007954  5197               	movf	(_index+1)& (0+255),w,b
  2906  007956  E109               	bnz	u1980
  2907  007958  0E04               	movlw	4
  2908  00795A  5D96               	subwf	_index& (0+255),w,b
  2909  00795C  A0D8               	btfss	status,0,c
  2910  00795E  EFB3  F03C         	goto	u1981
  2911  007962  EFB5  F03C         	goto	u1980
  2912  007966                     u1981:
  2913  007966  EFD9  F03A         	goto	l2688
  2914  00796A                     u1980:
  2915  00796A                     
  2916                           ; BSR set to: 0
  2917                           ;main.c: 215:                     index=0;
  2918  00796A  0E00               	movlw	0
  2919  00796C  6F97               	movwf	(_index+1)& (0+255),b
  2920  00796E  0E00               	movlw	0
  2921  007970  6F96               	movwf	_index& (0+255),b
  2922                           
  2923                           ;main.c: 216:                     pA=0x02;
  2924  007972  0E02               	movlw	2
  2925  007974  6E5F               	movwf	_pA^0,c
  2926  007976  EFD9  F03A         	goto	l2688
  2927  00797A  EF00  F000         	goto	start
  2928  00797E                     __end_of_main:
  2929                           	callstack 0
  2930                           
  2931 ;; *************** function _tapas *****************
  2932 ;; Defined at:
  2933 ;;		line 239 in file "main.c"
  2934 ;; Parameters:    Size  Location     Type
  2935 ;;  val             4   67[COMRAM] long 
  2936 ;;  y               2   71[COMRAM] int 
  2937 ;;  x               2   73[COMRAM] int 
  2938 ;; Auto vars:     Size  Location     Type
  2939 ;;		None
  2940 ;; Return value:  Size  Location     Type
  2941 ;;                  1    wreg      void 
  2942 ;; Registers used:
  2943 ;;		wreg, fsr2l, fsr2h, status,2, status,0, tblptrl, tblptrh, tblptru, prodl, prodh, cstack
  2944 ;; Tracked objects:
  2945 ;;		On entry : 0/0
  2946 ;;		On exit  : 0/0
  2947 ;;		Unchanged: 0/0
  2948 ;; Data sizes:     COMRAM   BANK0   BANK1   BANK2   BANK3   BANK4   BANK5   BANK6   BANK7
  2949 ;;      Params:         8       0       0       0       0       0       0       0       0
  2950 ;;      Locals:         0       0       0       0       0       0       0       0       0
  2951 ;;      Temps:          0       0       0       0       0       0       0       0       0
  2952 ;;      Totals:         8       0       0       0       0       0       0       0       0
  2953 ;;Total ram usage:        8 bytes
  2954 ;; Hardware stack levels used:    1
  2955 ;; Hardware stack levels required when called:    8
  2956 ;; This function calls:
  2957 ;;		_GLCD_Printf
  2958 ;;		_GLCD_SetCursor
  2959 ;; This function is called by:
  2960 ;;		_main
  2961 ;; This function uses a non-reentrant model
  2962 ;;
  2963                           
  2964                           	psect	text1
  2965  006CBA                     __ptext1:
  2966                           	callstack 0
  2967  006CBA                     _tapas:
  2968                           	callstack 22
  2969  006CBA                     
  2970                           ;main.c: 240:     GLCD_SetCursor(y,x);
  2971  006CBA  C04A  F009         	movff	tapas@x,GLCD_SetCursor@CursorPosition
  2972  006CBE  5048               	movf	tapas@y^0,w,c
  2973  006CC0  EC9A  F034         	call	_GLCD_SetCursor
  2974  006CC4                     
  2975                           ;main.c: 241:     if(val>748){
  2976  006CC4  BE47               	btfsc	(tapas@val+3)^0,7,c
  2977  006CC6  EF71  F036         	goto	u1701
  2978  006CCA  5047               	movf	(tapas@val+3)^0,w,c
  2979  006CCC  1046               	iorwf	(tapas@val+2)^0,w,c
  2980  006CCE  E10B               	bnz	u1700
  2981  006CD0  0EED               	movlw	237
  2982  006CD2  5C44               	subwf	tapas@val^0,w,c
  2983  006CD4  0E02               	movlw	2
  2984  006CD6  5845               	subwfb	(tapas@val+1)^0,w,c
  2985  006CD8  A0D8               	btfss	status,0,c
  2986  006CDA  EF71  F036         	goto	u1701
  2987  006CDE  EF73  F036         	goto	u1700
  2988  006CE2                     u1701:
  2989  006CE2  EF80  F036         	goto	l2536
  2990  006CE6                     u1700:
  2991  006CE6                     
  2992                           ;main.c: 242:         GLCD_Printf("\n-> No Hay Tapa!");
  2993  006CE6  0E96               	movlw	low STR_12
  2994  006CE8  6E2A               	movwf	GLCD_Printf@argList^0,c
  2995  006CEA  0E7F               	movlw	high STR_12
  2996  006CEC  6E2B               	movwf	(GLCD_Printf@argList+1)^0,c
  2997  006CEE  ECB7  F038         	call	_GLCD_Printf	;wreg free
  2998  006CF2                     l2534:
  2999                           
  3000                           ;main.c: 243:         codColor=0;
  3001  006CF2  0E00               	movlw	0
  3002  006CF4  0100               	movlb	0	; () banked
  3003  006CF6  6F8F               	movwf	(_codColor+1)& (0+255),b
  3004  006CF8  0E00               	movlw	0
  3005  006CFA  6F8E               	movwf	_codColor& (0+255),b
  3006                           
  3007                           ;main.c: 244:     } else {
  3008  006CFC  EF85  F037         	goto	l143
  3009  006D00                     l2536:
  3010                           
  3011                           ;main.c: 245:         if(val>715&&val<=730){
  3012  006D00  BE47               	btfsc	(tapas@val+3)^0,7,c
  3013  006D02  EF8F  F036         	goto	u1711
  3014  006D06  5047               	movf	(tapas@val+3)^0,w,c
  3015  006D08  1046               	iorwf	(tapas@val+2)^0,w,c
  3016  006D0A  E10B               	bnz	u1710
  3017  006D0C  0ECC               	movlw	204
  3018  006D0E  5C44               	subwf	tapas@val^0,w,c
  3019  006D10  0E02               	movlw	2
  3020  006D12  5845               	subwfb	(tapas@val+1)^0,w,c
  3021  006D14  A0D8               	btfss	status,0,c
  3022  006D16  EF8F  F036         	goto	u1711
  3023  006D1A  EF91  F036         	goto	u1710
  3024  006D1E                     u1711:
  3025  006D1E  EFB3  F036         	goto	l2546
  3026  006D22                     u1710:
  3027  006D22  BE47               	btfsc	(tapas@val+3)^0,7,c
  3028  006D24  EFA2  F036         	goto	u1720
  3029  006D28  5047               	movf	(tapas@val+3)^0,w,c
  3030  006D2A  1046               	iorwf	(tapas@val+2)^0,w,c
  3031  006D2C  E109               	bnz	u1721
  3032  006D2E  0EDB               	movlw	219
  3033  006D30  5C44               	subwf	tapas@val^0,w,c
  3034  006D32  0E02               	movlw	2
  3035  006D34  5845               	subwfb	(tapas@val+1)^0,w,c
  3036  006D36  B0D8               	btfsc	status,0,c
  3037  006D38  EFA0  F036         	goto	u1721
  3038  006D3C  EFA2  F036         	goto	u1720
  3039  006D40                     u1721:
  3040  006D40  EFB3  F036         	goto	l2546
  3041  006D44                     u1720:
  3042  006D44                     
  3043                           ;main.c: 246:             GLCD_Printf("\nColor: Blanco");
  3044  006D44  0EB8               	movlw	low STR_13
  3045  006D46  6E2A               	movwf	GLCD_Printf@argList^0,c
  3046  006D48  0E7F               	movlw	high STR_13
  3047  006D4A  6E2B               	movwf	(GLCD_Printf@argList+1)^0,c
  3048  006D4C  ECB7  F038         	call	_GLCD_Printf	;wreg free
  3049  006D50                     
  3050                           ;main.c: 247:             codColor=1;
  3051  006D50  0E00               	movlw	0
  3052  006D52  0100               	movlb	0	; () banked
  3053  006D54  6F8F               	movwf	(_codColor+1)& (0+255),b
  3054  006D56  0E01               	movlw	1
  3055  006D58  6F8E               	movwf	_codColor& (0+255),b
  3056  006D5A                     
  3057                           ; BSR set to: 0
  3058                           ;main.c: 248:             saldo+=10000;
  3059  006D5A  0E10               	movlw	16
  3060  006D5C  278C               	addwf	_saldo& (0+255),f,b
  3061  006D5E  0E27               	movlw	39
  3062  006D60  238D               	addwfc	(_saldo+1)& (0+255),f,b
  3063                           
  3064                           ;main.c: 249:         } else {
  3065  006D62  EF85  F037         	goto	l143
  3066  006D66                     l2546:
  3067                           
  3068                           ;main.c: 250:             if(val>680 && val<=710){
  3069  006D66  BE47               	btfsc	(tapas@val+3)^0,7,c
  3070  006D68  EFC2  F036         	goto	u1731
  3071  006D6C  5047               	movf	(tapas@val+3)^0,w,c
  3072  006D6E  1046               	iorwf	(tapas@val+2)^0,w,c
  3073  006D70  E10B               	bnz	u1730
  3074  006D72  0EA9               	movlw	169
  3075  006D74  5C44               	subwf	tapas@val^0,w,c
  3076  006D76  0E02               	movlw	2
  3077  006D78  5845               	subwfb	(tapas@val+1)^0,w,c
  3078  006D7A  A0D8               	btfss	status,0,c
  3079  006D7C  EFC2  F036         	goto	u1731
  3080  006D80  EFC4  F036         	goto	u1730
  3081  006D84                     u1731:
  3082  006D84  EFE6  F036         	goto	l2556
  3083  006D88                     u1730:
  3084  006D88  BE47               	btfsc	(tapas@val+3)^0,7,c
  3085  006D8A  EFD5  F036         	goto	u1740
  3086  006D8E  5047               	movf	(tapas@val+3)^0,w,c
  3087  006D90  1046               	iorwf	(tapas@val+2)^0,w,c
  3088  006D92  E109               	bnz	u1741
  3089  006D94  0EC7               	movlw	199
  3090  006D96  5C44               	subwf	tapas@val^0,w,c
  3091  006D98  0E02               	movlw	2
  3092  006D9A  5845               	subwfb	(tapas@val+1)^0,w,c
  3093  006D9C  B0D8               	btfsc	status,0,c
  3094  006D9E  EFD3  F036         	goto	u1741
  3095  006DA2  EFD5  F036         	goto	u1740
  3096  006DA6                     u1741:
  3097  006DA6  EFE6  F036         	goto	l2556
  3098  006DAA                     u1740:
  3099  006DAA                     
  3100                           ;main.c: 251:                 GLCD_Printf("\nColor: Amarillo");
  3101  006DAA  0EA7               	movlw	low STR_14
  3102  006DAC  6E2A               	movwf	GLCD_Printf@argList^0,c
  3103  006DAE  0E7F               	movlw	high STR_14
  3104  006DB0  6E2B               	movwf	(GLCD_Printf@argList+1)^0,c
  3105  006DB2  ECB7  F038         	call	_GLCD_Printf	;wreg free
  3106  006DB6                     
  3107                           ;main.c: 252:                 codColor=2;
  3108  006DB6  0E00               	movlw	0
  3109  006DB8  0100               	movlb	0	; () banked
  3110  006DBA  6F8F               	movwf	(_codColor+1)& (0+255),b
  3111  006DBC  0E02               	movlw	2
  3112  006DBE  6F8E               	movwf	_codColor& (0+255),b
  3113  006DC0                     
  3114                           ; BSR set to: 0
  3115                           ;main.c: 253:                 saldo+=5000;
  3116  006DC0  0E88               	movlw	136
  3117  006DC2  278C               	addwf	_saldo& (0+255),f,b
  3118  006DC4  0E13               	movlw	19
  3119  006DC6  238D               	addwfc	(_saldo+1)& (0+255),f,b
  3120                           
  3121                           ;main.c: 254:             } else {
  3122  006DC8  EF85  F037         	goto	l143
  3123  006DCC                     l2556:
  3124                           
  3125                           ;main.c: 255:                 if(val>650 && val<=680){
  3126  006DCC  BE47               	btfsc	(tapas@val+3)^0,7,c
  3127  006DCE  EFF5  F036         	goto	u1751
  3128  006DD2  5047               	movf	(tapas@val+3)^0,w,c
  3129  006DD4  1046               	iorwf	(tapas@val+2)^0,w,c
  3130  006DD6  E10B               	bnz	u1750
  3131  006DD8  0E8B               	movlw	139
  3132  006DDA  5C44               	subwf	tapas@val^0,w,c
  3133  006DDC  0E02               	movlw	2
  3134  006DDE  5845               	subwfb	(tapas@val+1)^0,w,c
  3135  006DE0  A0D8               	btfss	status,0,c
  3136  006DE2  EFF5  F036         	goto	u1751
  3137  006DE6  EFF7  F036         	goto	u1750
  3138  006DEA                     u1751:
  3139  006DEA  EF19  F037         	goto	l2566
  3140  006DEE                     u1750:
  3141  006DEE  BE47               	btfsc	(tapas@val+3)^0,7,c
  3142  006DF0  EF08  F037         	goto	u1760
  3143  006DF4  5047               	movf	(tapas@val+3)^0,w,c
  3144  006DF6  1046               	iorwf	(tapas@val+2)^0,w,c
  3145  006DF8  E109               	bnz	u1761
  3146  006DFA  0EA9               	movlw	169
  3147  006DFC  5C44               	subwf	tapas@val^0,w,c
  3148  006DFE  0E02               	movlw	2
  3149  006E00  5845               	subwfb	(tapas@val+1)^0,w,c
  3150  006E02  B0D8               	btfsc	status,0,c
  3151  006E04  EF06  F037         	goto	u1761
  3152  006E08  EF08  F037         	goto	u1760
  3153  006E0C                     u1761:
  3154  006E0C  EF19  F037         	goto	l2566
  3155  006E10                     u1760:
  3156  006E10                     
  3157                           ;main.c: 256:                     GLCD_Printf("\nColor: Azul Claro");
  3158  006E10  0E83               	movlw	low STR_15
  3159  006E12  6E2A               	movwf	GLCD_Printf@argList^0,c
  3160  006E14  0E7F               	movlw	high STR_15
  3161  006E16  6E2B               	movwf	(GLCD_Printf@argList+1)^0,c
  3162  006E18  ECB7  F038         	call	_GLCD_Printf	;wreg free
  3163  006E1C                     
  3164                           ;main.c: 257:                     codColor=3;
  3165  006E1C  0E00               	movlw	0
  3166  006E1E  0100               	movlb	0	; () banked
  3167  006E20  6F8F               	movwf	(_codColor+1)& (0+255),b
  3168  006E22  0E03               	movlw	3
  3169  006E24  6F8E               	movwf	_codColor& (0+255),b
  3170  006E26                     
  3171                           ; BSR set to: 0
  3172                           ;main.c: 258:                     saldo+=2000;
  3173  006E26  0ED0               	movlw	208
  3174  006E28  278C               	addwf	_saldo& (0+255),f,b
  3175  006E2A  0E07               	movlw	7
  3176  006E2C  238D               	addwfc	(_saldo+1)& (0+255),f,b
  3177                           
  3178                           ;main.c: 259:                 } else {
  3179  006E2E  EF85  F037         	goto	l143
  3180  006E32                     l2566:
  3181                           
  3182                           ;main.c: 260:                     if(val>330 && val<=370){
  3183  006E32  BE47               	btfsc	(tapas@val+3)^0,7,c
  3184  006E34  EF28  F037         	goto	u1771
  3185  006E38  5047               	movf	(tapas@val+3)^0,w,c
  3186  006E3A  1046               	iorwf	(tapas@val+2)^0,w,c
  3187  006E3C  E10B               	bnz	u1770
  3188  006E3E  0E4B               	movlw	75
  3189  006E40  5C44               	subwf	tapas@val^0,w,c
  3190  006E42  0E01               	movlw	1
  3191  006E44  5845               	subwfb	(tapas@val+1)^0,w,c
  3192  006E46  A0D8               	btfss	status,0,c
  3193  006E48  EF28  F037         	goto	u1771
  3194  006E4C  EF2A  F037         	goto	u1770
  3195  006E50                     u1771:
  3196  006E50  EF4C  F037         	goto	l2576
  3197  006E54                     u1770:
  3198  006E54  BE47               	btfsc	(tapas@val+3)^0,7,c
  3199  006E56  EF3B  F037         	goto	u1780
  3200  006E5A  5047               	movf	(tapas@val+3)^0,w,c
  3201  006E5C  1046               	iorwf	(tapas@val+2)^0,w,c
  3202  006E5E  E109               	bnz	u1781
  3203  006E60  0E73               	movlw	115
  3204  006E62  5C44               	subwf	tapas@val^0,w,c
  3205  006E64  0E01               	movlw	1
  3206  006E66  5845               	subwfb	(tapas@val+1)^0,w,c
  3207  006E68  B0D8               	btfsc	status,0,c
  3208  006E6A  EF39  F037         	goto	u1781
  3209  006E6E  EF3B  F037         	goto	u1780
  3210  006E72                     u1781:
  3211  006E72  EF4C  F037         	goto	l2576
  3212  006E76                     u1780:
  3213  006E76                     
  3214                           ;main.c: 261:                         GLCD_Printf("\nColor: Verde Oscuro");
  3215  006E76  0E5A               	movlw	low STR_16
  3216  006E78  6E2A               	movwf	GLCD_Printf@argList^0,c
  3217  006E7A  0E7F               	movlw	high STR_16
  3218  006E7C  6E2B               	movwf	(GLCD_Printf@argList+1)^0,c
  3219  006E7E  ECB7  F038         	call	_GLCD_Printf	;wreg free
  3220  006E82                     
  3221                           ;main.c: 262:                         codColor=4;
  3222  006E82  0E00               	movlw	0
  3223  006E84  0100               	movlb	0	; () banked
  3224  006E86  6F8F               	movwf	(_codColor+1)& (0+255),b
  3225  006E88  0E04               	movlw	4
  3226  006E8A  6F8E               	movwf	_codColor& (0+255),b
  3227  006E8C                     
  3228                           ; BSR set to: 0
  3229                           ;main.c: 263:                         saldo+=1000;
  3230  006E8C  0EE8               	movlw	232
  3231  006E8E  278C               	addwf	_saldo& (0+255),f,b
  3232  006E90  0E03               	movlw	3
  3233  006E92  238D               	addwfc	(_saldo+1)& (0+255),f,b
  3234                           
  3235                           ;main.c: 264:                     } else {
  3236  006E94  EF85  F037         	goto	l143
  3237  006E98                     l2576:
  3238                           
  3239                           ;main.c: 265:                         if(val>100 && val<=165){
  3240  006E98  BE47               	btfsc	(tapas@val+3)^0,7,c
  3241  006E9A  EF5A  F037         	goto	u1791
  3242  006E9E  5047               	movf	(tapas@val+3)^0,w,c
  3243  006EA0  1046               	iorwf	(tapas@val+2)^0,w,c
  3244  006EA2  1045               	iorwf	(tapas@val+1)^0,w,c
  3245  006EA4  E109               	bnz	u1790
  3246  006EA6  0E65               	movlw	101
  3247  006EA8  5C44               	subwf	tapas@val^0,w,c
  3248  006EAA  A0D8               	btfss	status,0,c
  3249  006EAC  EF5A  F037         	goto	u1791
  3250  006EB0  EF5C  F037         	goto	u1790
  3251  006EB4                     u1791:
  3252  006EB4  EF7D  F037         	goto	l2586
  3253  006EB8                     u1790:
  3254  006EB8  BE47               	btfsc	(tapas@val+3)^0,7,c
  3255  006EBA  EF6C  F037         	goto	u1800
  3256  006EBE  5047               	movf	(tapas@val+3)^0,w,c
  3257  006EC0  1046               	iorwf	(tapas@val+2)^0,w,c
  3258  006EC2  1045               	iorwf	(tapas@val+1)^0,w,c
  3259  006EC4  E107               	bnz	u1801
  3260  006EC6  0EA6               	movlw	166
  3261  006EC8  5C44               	subwf	tapas@val^0,w,c
  3262  006ECA  B0D8               	btfsc	status,0,c
  3263  006ECC  EF6A  F037         	goto	u1801
  3264  006ED0  EF6C  F037         	goto	u1800
  3265  006ED4                     u1801:
  3266  006ED4  EF7D  F037         	goto	l2586
  3267  006ED8                     u1800:
  3268  006ED8                     
  3269                           ;main.c: 266:                             GLCD_Printf("\nColor: Azul Oscuro");
  3270  006ED8  0E6F               	movlw	low STR_17
  3271  006EDA  6E2A               	movwf	GLCD_Printf@argList^0,c
  3272  006EDC  0E7F               	movlw	high STR_17
  3273  006EDE  6E2B               	movwf	(GLCD_Printf@argList+1)^0,c
  3274  006EE0  ECB7  F038         	call	_GLCD_Printf	;wreg free
  3275  006EE4                     
  3276                           ;main.c: 267:                             codColor=5;
  3277  006EE4  0E00               	movlw	0
  3278  006EE6  0100               	movlb	0	; () banked
  3279  006EE8  6F8F               	movwf	(_codColor+1)& (0+255),b
  3280  006EEA  0E05               	movlw	5
  3281  006EEC  6F8E               	movwf	_codColor& (0+255),b
  3282  006EEE                     
  3283                           ; BSR set to: 0
  3284                           ;main.c: 268:                             saldo+=500;
  3285  006EEE  0EF4               	movlw	244
  3286  006EF0  278C               	addwf	_saldo& (0+255),f,b
  3287  006EF2  0E01               	movlw	1
  3288  006EF4  238D               	addwfc	(_saldo+1)& (0+255),f,b
  3289                           
  3290                           ;main.c: 269:                         } else {
  3291  006EF6  EF85  F037         	goto	l143
  3292  006EFA                     l2586:
  3293                           
  3294                           ;main.c: 270:                             GLCD_Printf("\nSin Protector");
  3295  006EFA  0EC7               	movlw	low STR_18
  3296  006EFC  6E2A               	movwf	GLCD_Printf@argList^0,c
  3297  006EFE  0E7F               	movlw	high STR_18
  3298  006F00  6E2B               	movwf	(GLCD_Printf@argList+1)^0,c
  3299  006F02  ECB7  F038         	call	_GLCD_Printf	;wreg free
  3300  006F06  EF79  F036         	goto	l2534
  3301  006F0A                     l143:
  3302                           
  3303                           ; BSR set to: 0
  3304  006F0A  0012               	return		;funcret
  3305  006F0C                     __end_of_tapas:
  3306                           	callstack 0
  3307                           
  3308 ;; *************** function _row *****************
  3309 ;; Defined at:
  3310 ;;		line 280 in file "main.c"
  3311 ;; Parameters:    Size  Location     Type
  3312 ;;  portA           2    0[COMRAM] int 
  3313 ;; Auto vars:     Size  Location     Type
  3314 ;;		None
  3315 ;; Return value:  Size  Location     Type
  3316 ;;                  2    0[COMRAM] int 
  3317 ;; Registers used:
  3318 ;;		wreg, status,2, status,0
  3319 ;; Tracked objects:
  3320 ;;		On entry : 0/0
  3321 ;;		On exit  : 0/0
  3322 ;;		Unchanged: 0/0
  3323 ;; Data sizes:     COMRAM   BANK0   BANK1   BANK2   BANK3   BANK4   BANK5   BANK6   BANK7
  3324 ;;      Params:         2       0       0       0       0       0       0       0       0
  3325 ;;      Locals:         0       0       0       0       0       0       0       0       0
  3326 ;;      Temps:          2       0       0       0       0       0       0       0       0
  3327 ;;      Totals:         4       0       0       0       0       0       0       0       0
  3328 ;;Total ram usage:        4 bytes
  3329 ;; Hardware stack levels used:    1
  3330 ;; This function calls:
  3331 ;;		Nothing
  3332 ;; This function is called by:
  3333 ;;		_main
  3334 ;; This function uses a non-reentrant model
  3335 ;;
  3336                           
  3337                           	psect	text2
  3338  00683E                     __ptext2:
  3339                           	callstack 0
  3340  00683E                     _row:
  3341                           	callstack 30
  3342  00683E                     
  3343                           ;main.c: 281:     switch(portA){
  3344  00683E  EF39  F034         	goto	l2648
  3345  006842                     l2622:
  3346                           
  3347                           ;main.c: 283:             return 0;
  3348  006842  0E00               	movlw	0
  3349  006844  6E02               	movwf	(?_row+1)^0,c
  3350  006846  0E00               	movlw	0
  3351  006848  6E01               	movwf	?_row^0,c
  3352  00684A  EF57  F034         	goto	l148
  3353  00684E                     l2628:
  3354                           
  3355                           ;main.c: 286:             return 1;
  3356  00684E  0E00               	movlw	0
  3357  006850  6E02               	movwf	(?_row+1)^0,c
  3358  006852  0E01               	movlw	1
  3359  006854  6E01               	movwf	?_row^0,c
  3360  006856  EF57  F034         	goto	l148
  3361  00685A                     l2634:
  3362                           
  3363                           ;main.c: 289:             return 2;
  3364  00685A  0E00               	movlw	0
  3365  00685C  6E02               	movwf	(?_row+1)^0,c
  3366  00685E  0E02               	movlw	2
  3367  006860  6E01               	movwf	?_row^0,c
  3368  006862  EF57  F034         	goto	l148
  3369  006866                     l2640:
  3370                           
  3371                           ;main.c: 292:             return 3;
  3372  006866  0E00               	movlw	0
  3373  006868  6E02               	movwf	(?_row+1)^0,c
  3374  00686A  0E03               	movlw	3
  3375  00686C  6E01               	movwf	?_row^0,c
  3376  00686E  EF57  F034         	goto	l148
  3377  006872                     l2648:
  3378  006872  C001  F003         	movff	row@portA,??_row
  3379  006876  C002  F004         	movff	row@portA+1,??_row+1
  3380                           
  3381                           ; Switch on 2 bytes has been partitioned into a top level switch of size 1, and 1 sub-sw
      +                          itches
  3382                           ; Switch size 1, requested type "simple"
  3383                           ; Number of cases is 1, Range of values is 0 to 0
  3384                           ; switch strategies available:
  3385                           ; Name         Instructions Cycles
  3386                           ; simple_byte            4     3 (average)
  3387                           ;	Chosen strategy is simple_byte
  3388  00687A  5004               	movf	(??_row+1)^0,w,c
  3389  00687C  0A00               	xorlw	0	; case 0
  3390  00687E  B4D8               	btfsc	status,2,c
  3391  006880  EF44  F034         	goto	l2950
  3392  006884  EF57  F034         	goto	l148
  3393  006888                     l2950:
  3394                           
  3395                           ; Switch size 1, requested type "simple"
  3396                           ; Number of cases is 4, Range of values is 2 to 16
  3397                           ; switch strategies available:
  3398                           ; Name         Instructions Cycles
  3399                           ; simple_byte           13     7 (average)
  3400                           ;	Chosen strategy is simple_byte
  3401  006888  5003               	movf	??_row^0,w,c
  3402  00688A  0A02               	xorlw	2	; case 2
  3403  00688C  B4D8               	btfsc	status,2,c
  3404  00688E  EF21  F034         	goto	l2622
  3405  006892  0A06               	xorlw	6	; case 4
  3406  006894  B4D8               	btfsc	status,2,c
  3407  006896  EF27  F034         	goto	l2628
  3408  00689A  0A0C               	xorlw	12	; case 8
  3409  00689C  B4D8               	btfsc	status,2,c
  3410  00689E  EF2D  F034         	goto	l2634
  3411  0068A2  0A18               	xorlw	24	; case 16
  3412  0068A4  B4D8               	btfsc	status,2,c
  3413  0068A6  EF33  F034         	goto	l2640
  3414  0068AA  EF57  F034         	goto	l148
  3415  0068AE                     l148:
  3416  0068AE  0012               	return		;funcret
  3417  0068B0                     __end_of_row:
  3418                           	callstack 0
  3419                           
  3420 ;; *************** function _reset *****************
  3421 ;; Defined at:
  3422 ;;		line 225 in file "main.c"
  3423 ;; Parameters:    Size  Location     Type
  3424 ;;		None
  3425 ;; Auto vars:     Size  Location     Type
  3426 ;;  i               2   67[COMRAM] int 
  3427 ;; Return value:  Size  Location     Type
  3428 ;;                  1    wreg      void 
  3429 ;; Registers used:
  3430 ;;		wreg, fsr2l, fsr2h, status,2, status,0, tblptrl, tblptrh, tblptru, prodl, prodh, cstack
  3431 ;; Tracked objects:
  3432 ;;		On entry : 0/0
  3433 ;;		On exit  : 0/0
  3434 ;;		Unchanged: 0/0
  3435 ;; Data sizes:     COMRAM   BANK0   BANK1   BANK2   BANK3   BANK4   BANK5   BANK6   BANK7
  3436 ;;      Params:         0       0       0       0       0       0       0       0       0
  3437 ;;      Locals:         2       0       0       0       0       0       0       0       0
  3438 ;;      Temps:          0       0       0       0       0       0       0       0       0
  3439 ;;      Totals:         2       0       0       0       0       0       0       0       0
  3440 ;;Total ram usage:        2 bytes
  3441 ;; Hardware stack levels used:    1
  3442 ;; Hardware stack levels required when called:    8
  3443 ;; This function calls:
  3444 ;;		_GLCD_Printf
  3445 ;;		_GLCD_SetCursor
  3446 ;; This function is called by:
  3447 ;;		_main
  3448 ;; This function uses a non-reentrant model
  3449 ;;
  3450                           
  3451                           	psect	text3
  3452  0066AA                     __ptext3:
  3453                           	callstack 0
  3454  0066AA                     _reset:
  3455                           	callstack 22
  3456  0066AA                     
  3457                           ;main.c: 226:     for(int i=0; i<4;i++){
  3458  0066AA  0E00               	movlw	0
  3459  0066AC  6E45               	movwf	(reset@i+1)^0,c
  3460  0066AE  0E00               	movlw	0
  3461  0066B0  6E44               	movwf	reset@i^0,c
  3462  0066B2                     l2660:
  3463                           
  3464                           ;main.c: 227:         GLCD_SetCursor(sY,(sX+(i*6)));
  3465  0066B2  5044               	movf	reset@i^0,w,c
  3466  0066B4  0D06               	mullw	6
  3467  0066B6  50F3               	movf	243,w,c
  3468  0066B8  0F28               	addlw	40
  3469  0066BA  6E09               	movwf	GLCD_SetCursor@CursorPosition^0,c
  3470  0066BC  0E01               	movlw	1
  3471  0066BE  EC9A  F034         	call	_GLCD_SetCursor
  3472  0066C2                     
  3473                           ;main.c: 228:         GLCD_Printf(" ");
  3474  0066C2  0EF5               	movlw	low (STR_2+5)
  3475  0066C4  6E2A               	movwf	GLCD_Printf@argList^0,c
  3476  0066C6  0E7F               	movlw	high (STR_2+5)
  3477  0066C8  6E2B               	movwf	(GLCD_Printf@argList+1)^0,c
  3478  0066CA  ECB7  F038         	call	_GLCD_Printf	;wreg free
  3479  0066CE                     
  3480                           ;main.c: 229:         xSC=sX;
  3481  0066CE  0E00               	movlw	0
  3482  0066D0  0100               	movlb	0	; () banked
  3483  0066D2  6F9D               	movwf	(_xSC+1)& (0+255),b
  3484  0066D4  0E28               	movlw	40
  3485  0066D6  6F9C               	movwf	_xSC& (0+255),b
  3486  0066D8                     
  3487                           ; BSR set to: 0
  3488                           ;main.c: 230:         contChar=1;
  3489  0066D8  0E00               	movlw	0
  3490  0066DA  6F71               	movwf	(_contChar+1)& (0+255),b
  3491  0066DC  0E01               	movlw	1
  3492  0066DE  6F70               	movwf	_contChar& (0+255),b
  3493  0066E0                     
  3494                           ; BSR set to: 0
  3495                           ;main.c: 231:     }
  3496  0066E0  4A44               	infsnz	reset@i^0,f,c
  3497  0066E2  2A45               	incf	(reset@i+1)^0,f,c
  3498  0066E4                     
  3499                           ; BSR set to: 0
  3500  0066E4  BE45               	btfsc	(reset@i+1)^0,7,c
  3501  0066E6  EF7E  F033         	goto	u1851
  3502  0066EA  5045               	movf	(reset@i+1)^0,w,c
  3503  0066EC  E109               	bnz	u1850
  3504  0066EE  0E04               	movlw	4
  3505  0066F0  5C44               	subwf	reset@i^0,w,c
  3506  0066F2  A0D8               	btfss	status,0,c
  3507  0066F4  EF7E  F033         	goto	u1851
  3508  0066F8  EF80  F033         	goto	u1850
  3509  0066FC                     u1851:
  3510  0066FC  EF59  F033         	goto	l2660
  3511  006700                     u1850:
  3512  006700                     
  3513                           ; BSR set to: 0
  3514  006700  0012               	return		;funcret
  3515  006702                     __end_of_reset:
  3516                           	callstack 0
  3517                           
  3518 ;; *************** function _GLCD_SetCursor *****************
  3519 ;; Defined at:
  3520 ;;		line 801 in file "glcd.c"
  3521 ;; Parameters:    Size  Location     Type
  3522 ;;  lineNumber      1    wreg     unsigned char 
  3523 ;;  CursorPositi    1    8[COMRAM] unsigned char 
  3524 ;; Auto vars:     Size  Location     Type
  3525 ;;  lineNumber      1    9[COMRAM] unsigned char 
  3526 ;;  pageNumber      1   10[COMRAM] unsigned char 
  3527 ;; Return value:  Size  Location     Type
  3528 ;;                  1    wreg      void 
  3529 ;; Registers used:
  3530 ;;		wreg, status,2, status,0, cstack
  3531 ;; Tracked objects:
  3532 ;;		On entry : 0/0
  3533 ;;		On exit  : 0/0
  3534 ;;		Unchanged: 0/0
  3535 ;; Data sizes:     COMRAM   BANK0   BANK1   BANK2   BANK3   BANK4   BANK5   BANK6   BANK7
  3536 ;;      Params:         1       0       0       0       0       0       0       0       0
  3537 ;;      Locals:         2       0       0       0       0       0       0       0       0
  3538 ;;      Temps:          0       0       0       0       0       0       0       0       0
  3539 ;;      Totals:         3       0       0       0       0       0       0       0       0
  3540 ;;Total ram usage:        3 bytes
  3541 ;; Hardware stack levels used:    1
  3542 ;; Hardware stack levels required when called:    3
  3543 ;; This function calls:
  3544 ;;		___awdiv
  3545 ;;		___awmod
  3546 ;;		_glcd_CmdWrite
  3547 ;;		_glcd_SelectPage0
  3548 ;;		_glcd_SelectPage1
  3549 ;; This function is called by:
  3550 ;;		_main
  3551 ;;		_reset
  3552 ;;		_tapas
  3553 ;;		_GLCD_VerticalGraph
  3554 ;;		_GLCD_HorizontalGraph
  3555 ;; This function uses a non-reentrant model
  3556 ;;
  3557                           
  3558                           	psect	text4
  3559  006934                     __ptext4:
  3560                           	callstack 0
  3561  006934                     _GLCD_SetCursor:
  3562                           	callstack 26
  3563                           
  3564                           ; BSR set to: 0
  3565                           ;incstack = 0
  3566                           ;GLCD_SetCursor@lineNumber stored from wreg
  3567  006934  6E0A               	movwf	GLCD_SetCursor@lineNumber^0,c
  3568  006936                     
  3569                           ;glcd.c: 801: void GLCD_SetCursor(uint8_t lineNumber,uint8_t CursorPosition);glcd.c: 802
      +                          : {;glcd.c: 804:  uint8_t pageNumber;;glcd.c: 806:  if((lineNumber <= 0x07u) && (CursorP
      +                          osition <= 128))
  3570  006936  0E08               	movlw	8
  3571  006938  600A               	cpfslt	GLCD_SetCursor@lineNumber^0,c
  3572  00693A  EFA1  F034         	goto	u1501
  3573  00693E  EFA3  F034         	goto	u1500
  3574  006942                     u1501:
  3575  006942  EFDD  F034         	goto	l323
  3576  006946                     u1500:
  3577  006946  0E81               	movlw	129
  3578  006948  6009               	cpfslt	GLCD_SetCursor@CursorPosition^0,c
  3579  00694A  EFA9  F034         	goto	u1511
  3580  00694E  EFAB  F034         	goto	u1510
  3581  006952                     u1511:
  3582  006952  EFDD  F034         	goto	l323
  3583  006956                     u1510:
  3584  006956                     
  3585                           ;glcd.c: 807:  {;glcd.c: 808:   pageNumber = CursorPosition / 64;
  3586  006956  C009  F001         	movff	GLCD_SetCursor@CursorPosition,___awdiv@dividend
  3587  00695A  6A02               	clrf	(___awdiv@dividend+1)^0,c
  3588  00695C  0E00               	movlw	0
  3589  00695E  6E04               	movwf	(___awdiv@divisor+1)^0,c
  3590  006960  0E40               	movlw	64
  3591  006962  6E03               	movwf	___awdiv@divisor^0,c
  3592  006964  EC88  F035         	call	___awdiv	;wreg free
  3593  006968  5001               	movf	?___awdiv^0,w,c
  3594  00696A  6E0B               	movwf	GLCD_SetCursor@pageNumber^0,c
  3595                           
  3596                           ;glcd.c: 809:   CursorPosition = CursorPosition % 0x3f;
  3597  00696C  C009  F001         	movff	GLCD_SetCursor@CursorPosition,___awmod@dividend
  3598  006970  6A02               	clrf	(___awmod@dividend+1)^0,c
  3599  006972  0E00               	movlw	0
  3600  006974  6E04               	movwf	(___awmod@divisor+1)^0,c
  3601  006976  0E3F               	movlw	63
  3602  006978  6E03               	movwf	___awmod@divisor^0,c
  3603  00697A  EC30  F035         	call	___awmod	;wreg free
  3604  00697E  5001               	movf	?___awmod^0,w,c
  3605  006980  6E09               	movwf	GLCD_SetCursor@CursorPosition^0,c
  3606  006982                     
  3607                           ;glcd.c: 810:   if(pageNumber==0x00)
  3608  006982  500B               	movf	GLCD_SetCursor@pageNumber^0,w,c
  3609  006984  A4D8               	btfss	status,2,c
  3610  006986  EFC7  F034         	goto	u1521
  3611  00698A  EFC9  F034         	goto	u1520
  3612  00698E                     u1521:
  3613  00698E  EFCD  F034         	goto	l2278
  3614  006992                     u1520:
  3615  006992                     
  3616                           ;glcd.c: 811:   {;glcd.c: 812:    glcd_SelectPage0();
  3617  006992  EC58  F032         	call	_glcd_SelectPage0	;wreg free
  3618                           
  3619                           ;glcd.c: 813:   }
  3620  006996  EFCF  F034         	goto	l2280
  3621  00699A                     l2278:
  3622                           
  3623                           ;glcd.c: 815:   {;glcd.c: 816:    glcd_SelectPage1();
  3624  00699A  EC5B  F032         	call	_glcd_SelectPage1	;wreg free
  3625  00699E                     l2280:
  3626                           
  3627                           ;glcd.c: 819:   GLCD.PageNum = pageNumber;
  3628  00699E  C00B  F058         	movff	GLCD_SetCursor@pageNumber,_GLCD
  3629  0069A2                     
  3630                           ;glcd.c: 820:   GLCD.LineNum=lineNumber | 0xB8;
  3631  0069A2  500A               	movf	GLCD_SetCursor@lineNumber^0,w,c
  3632  0069A4  09B8               	iorlw	184
  3633  0069A6  6E59               	movwf	(_GLCD+1)^0,c
  3634  0069A8                     
  3635                           ;glcd.c: 821:   GLCD.CursorPos=CursorPosition |0x40;
  3636  0069A8  5009               	movf	GLCD_SetCursor@CursorPosition^0,w,c
  3637  0069AA  0940               	iorlw	64
  3638  0069AC  6E5A               	movwf	(_GLCD+2)^0,c
  3639  0069AE                     
  3640                           ;glcd.c: 823:   glcd_CmdWrite(GLCD.CursorPos);
  3641  0069AE  505A               	movf	(_GLCD+2)^0,w,c
  3642  0069B0  EC8F  F032         	call	_glcd_CmdWrite
  3643  0069B4                     
  3644                           ;glcd.c: 824:   glcd_CmdWrite(GLCD.LineNum);
  3645  0069B4  5059               	movf	(_GLCD+1)^0,w,c
  3646  0069B6  EC8F  F032         	call	_glcd_CmdWrite
  3647  0069BA                     l323:
  3648  0069BA  0012               	return		;funcret
  3649  0069BC                     __end_of_GLCD_SetCursor:
  3650                           	callstack 0
  3651                           
  3652 ;; *************** function ___awmod *****************
  3653 ;; Defined at:
  3654 ;;		line 7 in file "C:\Program Files\Microchip\xc8\v2.31\pic\sources\c99\common\awmod.c"
  3655 ;; Parameters:    Size  Location     Type
  3656 ;;  dividend        2    0[COMRAM] int 
  3657 ;;  divisor         2    2[COMRAM] int 
  3658 ;; Auto vars:     Size  Location     Type
  3659 ;;  sign            1    5[COMRAM] unsigned char 
  3660 ;;  counter         1    4[COMRAM] unsigned char 
  3661 ;; Return value:  Size  Location     Type
  3662 ;;                  2    0[COMRAM] int 
  3663 ;; Registers used:
  3664 ;;		wreg, status,2, status,0
  3665 ;; Tracked objects:
  3666 ;;		On entry : 0/0
  3667 ;;		On exit  : 0/0
  3668 ;;		Unchanged: 0/0
  3669 ;; Data sizes:     COMRAM   BANK0   BANK1   BANK2   BANK3   BANK4   BANK5   BANK6   BANK7
  3670 ;;      Params:         4       0       0       0       0       0       0       0       0
  3671 ;;      Locals:         2       0       0       0       0       0       0       0       0
  3672 ;;      Temps:          0       0       0       0       0       0       0       0       0
  3673 ;;      Totals:         6       0       0       0       0       0       0       0       0
  3674 ;;Total ram usage:        6 bytes
  3675 ;; Hardware stack levels used:    1
  3676 ;; This function calls:
  3677 ;;		Nothing
  3678 ;; This function is called by:
  3679 ;;		_GLCD_SetCursor
  3680 ;; This function uses a non-reentrant model
  3681 ;;
  3682                           
  3683                           	psect	text5
  3684  006A60                     __ptext5:
  3685                           	callstack 0
  3686  006A60                     ___awmod:
  3687                           	callstack 28
  3688  006A60  0E00               	movlw	0
  3689  006A62  6E06               	movwf	___awmod@sign^0,c
  3690  006A64  BE02               	btfsc	(___awmod@dividend+1)^0,7,c
  3691  006A66  EF39  F035         	goto	u1440
  3692  006A6A  EF37  F035         	goto	u1441
  3693  006A6E                     u1441:
  3694  006A6E  EF3F  F035         	goto	l2240
  3695  006A72                     u1440:
  3696  006A72  6C01               	negf	___awmod@dividend^0,c
  3697  006A74  1E02               	comf	(___awmod@dividend+1)^0,f,c
  3698  006A76  B0D8               	btfsc	status,0,c
  3699  006A78  2A02               	incf	(___awmod@dividend+1)^0,f,c
  3700  006A7A  0E01               	movlw	1
  3701  006A7C  6E06               	movwf	___awmod@sign^0,c
  3702  006A7E                     l2240:
  3703  006A7E  BE04               	btfsc	(___awmod@divisor+1)^0,7,c
  3704  006A80  EF46  F035         	goto	u1450
  3705  006A84  EF44  F035         	goto	u1451
  3706  006A88                     u1451:
  3707  006A88  EF4A  F035         	goto	l2244
  3708  006A8C                     u1450:
  3709  006A8C  6C03               	negf	___awmod@divisor^0,c
  3710  006A8E  1E04               	comf	(___awmod@divisor+1)^0,f,c
  3711  006A90  B0D8               	btfsc	status,0,c
  3712  006A92  2A04               	incf	(___awmod@divisor+1)^0,f,c
  3713  006A94                     l2244:
  3714  006A94  5003               	movf	___awmod@divisor^0,w,c
  3715  006A96  1004               	iorwf	(___awmod@divisor+1)^0,w,c
  3716  006A98  B4D8               	btfsc	status,2,c
  3717  006A9A  EF51  F035         	goto	u1461
  3718  006A9E  EF53  F035         	goto	u1460
  3719  006AA2                     u1461:
  3720  006AA2  EF77  F035         	goto	l2260
  3721  006AA6                     u1460:
  3722  006AA6  0E01               	movlw	1
  3723  006AA8  6E05               	movwf	___awmod@counter^0,c
  3724  006AAA  EF5B  F035         	goto	l2250
  3725  006AAE                     l2248:
  3726  006AAE  90D8               	bcf	status,0,c
  3727  006AB0  3603               	rlcf	___awmod@divisor^0,f,c
  3728  006AB2  3604               	rlcf	(___awmod@divisor+1)^0,f,c
  3729  006AB4  2A05               	incf	___awmod@counter^0,f,c
  3730  006AB6                     l2250:
  3731  006AB6  AE04               	btfss	(___awmod@divisor+1)^0,7,c
  3732  006AB8  EF60  F035         	goto	u1471
  3733  006ABC  EF62  F035         	goto	u1470
  3734  006AC0                     u1471:
  3735  006AC0  EF57  F035         	goto	l2248
  3736  006AC4                     u1470:
  3737  006AC4                     l2252:
  3738  006AC4  5003               	movf	___awmod@divisor^0,w,c
  3739  006AC6  5C01               	subwf	___awmod@dividend^0,w,c
  3740  006AC8  5004               	movf	(___awmod@divisor+1)^0,w,c
  3741  006ACA  5802               	subwfb	(___awmod@dividend+1)^0,w,c
  3742  006ACC  A0D8               	btfss	status,0,c
  3743  006ACE  EF6B  F035         	goto	u1481
  3744  006AD2  EF6D  F035         	goto	u1480
  3745  006AD6                     u1481:
  3746  006AD6  EF71  F035         	goto	l2256
  3747  006ADA                     u1480:
  3748  006ADA  5003               	movf	___awmod@divisor^0,w,c
  3749  006ADC  5E01               	subwf	___awmod@dividend^0,f,c
  3750  006ADE  5004               	movf	(___awmod@divisor+1)^0,w,c
  3751  006AE0  5A02               	subwfb	(___awmod@dividend+1)^0,f,c
  3752  006AE2                     l2256:
  3753  006AE2  90D8               	bcf	status,0,c
  3754  006AE4  3204               	rrcf	(___awmod@divisor+1)^0,f,c
  3755  006AE6  3203               	rrcf	___awmod@divisor^0,f,c
  3756  006AE8  2E05               	decfsz	___awmod@counter^0,f,c
  3757  006AEA  EF62  F035         	goto	l2252
  3758  006AEE                     l2260:
  3759  006AEE  5006               	movf	___awmod@sign^0,w,c
  3760  006AF0  B4D8               	btfsc	status,2,c
  3761  006AF2  EF7D  F035         	goto	u1491
  3762  006AF6  EF7F  F035         	goto	u1490
  3763  006AFA                     u1491:
  3764  006AFA  EF83  F035         	goto	l2264
  3765  006AFE                     u1490:
  3766  006AFE  6C01               	negf	___awmod@dividend^0,c
  3767  006B00  1E02               	comf	(___awmod@dividend+1)^0,f,c
  3768  006B02  B0D8               	btfsc	status,0,c
  3769  006B04  2A02               	incf	(___awmod@dividend+1)^0,f,c
  3770  006B06                     l2264:
  3771  006B06  C001  F001         	movff	___awmod@dividend,?___awmod
  3772  006B0A  C002  F002         	movff	___awmod@dividend+1,?___awmod+1
  3773  006B0E  0012               	return		;funcret
  3774  006B10                     __end_of___awmod:
  3775                           	callstack 0
  3776                           
  3777 ;; *************** function ___awdiv *****************
  3778 ;; Defined at:
  3779 ;;		line 7 in file "C:\Program Files\Microchip\xc8\v2.31\pic\sources\c99\common\awdiv.c"
  3780 ;; Parameters:    Size  Location     Type
  3781 ;;  dividend        2    0[COMRAM] int 
  3782 ;;  divisor         2    2[COMRAM] int 
  3783 ;; Auto vars:     Size  Location     Type
  3784 ;;  quotient        2    6[COMRAM] int 
  3785 ;;  sign            1    5[COMRAM] unsigned char 
  3786 ;;  counter         1    4[COMRAM] unsigned char 
  3787 ;; Return value:  Size  Location     Type
  3788 ;;                  2    0[COMRAM] int 
  3789 ;; Registers used:
  3790 ;;		wreg, status,2, status,0
  3791 ;; Tracked objects:
  3792 ;;		On entry : 0/0
  3793 ;;		On exit  : 0/0
  3794 ;;		Unchanged: 0/0
  3795 ;; Data sizes:     COMRAM   BANK0   BANK1   BANK2   BANK3   BANK4   BANK5   BANK6   BANK7
  3796 ;;      Params:         4       0       0       0       0       0       0       0       0
  3797 ;;      Locals:         4       0       0       0       0       0       0       0       0
  3798 ;;      Temps:          0       0       0       0       0       0       0       0       0
  3799 ;;      Totals:         8       0       0       0       0       0       0       0       0
  3800 ;;Total ram usage:        8 bytes
  3801 ;; Hardware stack levels used:    1
  3802 ;; This function calls:
  3803 ;;		Nothing
  3804 ;; This function is called by:
  3805 ;;		_GLCD_SetCursor
  3806 ;;		_GLCD_VerticalGraph
  3807 ;; This function uses a non-reentrant model
  3808 ;;
  3809                           
  3810                           	psect	text6
  3811  006B10                     __ptext6:
  3812                           	callstack 0
  3813  006B10                     ___awdiv:
  3814                           	callstack 28
  3815  006B10  0E00               	movlw	0
  3816  006B12  6E06               	movwf	___awdiv@sign^0,c
  3817  006B14  BE04               	btfsc	(___awdiv@divisor+1)^0,7,c
  3818  006B16  EF91  F035         	goto	u1380
  3819  006B1A  EF8F  F035         	goto	u1381
  3820  006B1E                     u1381:
  3821  006B1E  EF97  F035         	goto	l2196
  3822  006B22                     u1380:
  3823  006B22  6C03               	negf	___awdiv@divisor^0,c
  3824  006B24  1E04               	comf	(___awdiv@divisor+1)^0,f,c
  3825  006B26  B0D8               	btfsc	status,0,c
  3826  006B28  2A04               	incf	(___awdiv@divisor+1)^0,f,c
  3827  006B2A  0E01               	movlw	1
  3828  006B2C  6E06               	movwf	___awdiv@sign^0,c
  3829  006B2E                     l2196:
  3830  006B2E  BE02               	btfsc	(___awdiv@dividend+1)^0,7,c
  3831  006B30  EF9E  F035         	goto	u1390
  3832  006B34  EF9C  F035         	goto	u1391
  3833  006B38                     u1391:
  3834  006B38  EFA4  F035         	goto	l2202
  3835  006B3C                     u1390:
  3836  006B3C  6C01               	negf	___awdiv@dividend^0,c
  3837  006B3E  1E02               	comf	(___awdiv@dividend+1)^0,f,c
  3838  006B40  B0D8               	btfsc	status,0,c
  3839  006B42  2A02               	incf	(___awdiv@dividend+1)^0,f,c
  3840  006B44  0E01               	movlw	1
  3841  006B46  1A06               	xorwf	___awdiv@sign^0,f,c
  3842  006B48                     l2202:
  3843  006B48  0E00               	movlw	0
  3844  006B4A  6E08               	movwf	(___awdiv@quotient+1)^0,c
  3845  006B4C  0E00               	movlw	0
  3846  006B4E  6E07               	movwf	___awdiv@quotient^0,c
  3847  006B50  5003               	movf	___awdiv@divisor^0,w,c
  3848  006B52  1004               	iorwf	(___awdiv@divisor+1)^0,w,c
  3849  006B54  B4D8               	btfsc	status,2,c
  3850  006B56  EFAF  F035         	goto	u1401
  3851  006B5A  EFB1  F035         	goto	u1400
  3852  006B5E                     u1401:
  3853  006B5E  EFD9  F035         	goto	l2224
  3854  006B62                     u1400:
  3855  006B62  0E01               	movlw	1
  3856  006B64  6E05               	movwf	___awdiv@counter^0,c
  3857  006B66  EFB9  F035         	goto	l2210
  3858  006B6A                     l2208:
  3859  006B6A  90D8               	bcf	status,0,c
  3860  006B6C  3603               	rlcf	___awdiv@divisor^0,f,c
  3861  006B6E  3604               	rlcf	(___awdiv@divisor+1)^0,f,c
  3862  006B70  2A05               	incf	___awdiv@counter^0,f,c
  3863  006B72                     l2210:
  3864  006B72  AE04               	btfss	(___awdiv@divisor+1)^0,7,c
  3865  006B74  EFBE  F035         	goto	u1411
  3866  006B78  EFC0  F035         	goto	u1410
  3867  006B7C                     u1411:
  3868  006B7C  EFB5  F035         	goto	l2208
  3869  006B80                     u1410:
  3870  006B80                     l2212:
  3871  006B80  90D8               	bcf	status,0,c
  3872  006B82  3607               	rlcf	___awdiv@quotient^0,f,c
  3873  006B84  3608               	rlcf	(___awdiv@quotient+1)^0,f,c
  3874  006B86  5003               	movf	___awdiv@divisor^0,w,c
  3875  006B88  5C01               	subwf	___awdiv@dividend^0,w,c
  3876  006B8A  5004               	movf	(___awdiv@divisor+1)^0,w,c
  3877  006B8C  5802               	subwfb	(___awdiv@dividend+1)^0,w,c
  3878  006B8E  A0D8               	btfss	status,0,c
  3879  006B90  EFCC  F035         	goto	u1421
  3880  006B94  EFCE  F035         	goto	u1420
  3881  006B98                     u1421:
  3882  006B98  EFD3  F035         	goto	l2220
  3883  006B9C                     u1420:
  3884  006B9C  5003               	movf	___awdiv@divisor^0,w,c
  3885  006B9E  5E01               	subwf	___awdiv@dividend^0,f,c
  3886  006BA0  5004               	movf	(___awdiv@divisor+1)^0,w,c
  3887  006BA2  5A02               	subwfb	(___awdiv@dividend+1)^0,f,c
  3888  006BA4  8007               	bsf	___awdiv@quotient^0,0,c
  3889  006BA6                     l2220:
  3890  006BA6  90D8               	bcf	status,0,c
  3891  006BA8  3204               	rrcf	(___awdiv@divisor+1)^0,f,c
  3892  006BAA  3203               	rrcf	___awdiv@divisor^0,f,c
  3893  006BAC  2E05               	decfsz	___awdiv@counter^0,f,c
  3894  006BAE  EFC0  F035         	goto	l2212
  3895  006BB2                     l2224:
  3896  006BB2  5006               	movf	___awdiv@sign^0,w,c
  3897  006BB4  B4D8               	btfsc	status,2,c
  3898  006BB6  EFDF  F035         	goto	u1431
  3899  006BBA  EFE1  F035         	goto	u1430
  3900  006BBE                     u1431:
  3901  006BBE  EFE5  F035         	goto	l2228
  3902  006BC2                     u1430:
  3903  006BC2  6C07               	negf	___awdiv@quotient^0,c
  3904  006BC4  1E08               	comf	(___awdiv@quotient+1)^0,f,c
  3905  006BC6  B0D8               	btfsc	status,0,c
  3906  006BC8  2A08               	incf	(___awdiv@quotient+1)^0,f,c
  3907  006BCA                     l2228:
  3908  006BCA  C007  F001         	movff	___awdiv@quotient,?___awdiv
  3909  006BCE  C008  F002         	movff	___awdiv@quotient+1,?___awdiv+1
  3910  006BD2  0012               	return		;funcret
  3911  006BD4                     __end_of___awdiv:
  3912                           	callstack 0
  3913                           
  3914 ;; *************** function _GLCD_Printf *****************
  3915 ;; Defined at:
  3916 ;;		line 526 in file "glcd.c"
  3917 ;; Parameters:    Size  Location     Type
  3918 ;;  argList         2   41[COMRAM] PTR const unsigned char 
  3919 ;;		 -> STR_18(15), STR_17(20), STR_16(21), STR_15(19), 
  3920 ;;		 -> STR_14(17), STR_13(15), STR_12(17), STR_11(2), 
  3921 ;;		 -> STR_10(4), STR_9(10), STR_8(3), STR_7(3), 
  3922 ;;		 -> STR_6(3), STR_5(3), STR_4(8), STR_3(3), 
  3923 ;;		 -> STR_2(7), STR_1(8), 
  3924 ;; Auto vars:     Size  Location     Type
  3925 ;;  v_num_u32       4   55[COMRAM] unsigned long 
  3926 ;;  argp            2   65[COMRAM] PTR void [1]
  3927 ;;		 -> ?_GLCD_Printf(1), 
  3928 ;;  ptr             2   61[COMRAM] PTR const unsigned char 
  3929 ;;		 -> STR_18(15), STR_17(20), STR_16(21), STR_15(19), 
  3930 ;;		 -> STR_14(17), STR_13(15), STR_12(17), STR_11(2), 
  3931 ;;		 -> STR_10(4), STR_9(10), STR_8(3), STR_7(3), 
  3932 ;;		 -> STR_6(3), STR_5(3), STR_4(8), STR_3(3), 
  3933 ;;		 -> STR_2(7), STR_1(8), 
  3934 ;;  v_num_u16       2   59[COMRAM] unsigned short 
  3935 ;;  v_num_s32       2   53[COMRAM] int 
  3936 ;;  v_num_s16       2   51[COMRAM] short 
  3937 ;;  str             2   49[COMRAM] PTR unsigned char 
  3938 ;;		 -> ?_GLCD_Printf(1), 
  3939 ;;  v_numOfDigit    1   64[COMRAM] unsigned char 
  3940 ;;  ch              1   63[COMRAM] unsigned char 
  3941 ;; Return value:  Size  Location     Type
  3942 ;;                  1    wreg      void 
  3943 ;; Registers used:
  3944 ;;		wreg, fsr2l, fsr2h, status,2, status,0, tblptrl, tblptrh, tblptru, prodl, prodh, cstack
  3945 ;; Tracked objects:
  3946 ;;		On entry : 0/0
  3947 ;;		On exit  : 0/0
  3948 ;;		Unchanged: 0/0
  3949 ;; Data sizes:     COMRAM   BANK0   BANK1   BANK2   BANK3   BANK4   BANK5   BANK6   BANK7
  3950 ;;      Params:         6       0       0       0       0       0       0       0       0
  3951 ;;      Locals:        18       0       0       0       0       0       0       0       0
  3952 ;;      Temps:          2       0       0       0       0       0       0       0       0
  3953 ;;      Totals:        26       0       0       0       0       0       0       0       0
  3954 ;;Total ram usage:       26 bytes
  3955 ;; Hardware stack levels used:    1
  3956 ;; Hardware stack levels required when called:    7
  3957 ;; This function calls:
  3958 ;;		_GLCD_DisplayChar
  3959 ;;		_GLCD_DisplayNumber
  3960 ;;		_GLCD_DisplayString
  3961 ;; This function is called by:
  3962 ;;		_main
  3963 ;;		_reset
  3964 ;;		_tapas
  3965 ;; This function uses a non-reentrant model
  3966 ;;
  3967                           
  3968                           	psect	text7
  3969  00716E                     __ptext7:
  3970                           	callstack 0
  3971  00716E                     _GLCD_Printf:
  3972                           	callstack 22
  3973  00716E                     
  3974                           ;glcd.c: 526: void GLCD_Printf(const char *argList, ...);glcd.c: 527: {;glcd.c: 528:    
      +                           const char *ptr;;glcd.c: 529:     va_list argp;;glcd.c: 530:     sint16_t v_num_s16;;gl
      +                          cd.c: 531:     sint32_t v_num_s32;;glcd.c: 532:     uint16_t v_num_u16;;glcd.c: 533:    
      +                           uint32_t v_num_u32;;glcd.c: 534:     char *str;;glcd.c: 535:     char ch;;glcd.c: 536: 
      +                              uint8_t v_numOfDigitsToDisp_u8;;glcd.c: 541:     *argp = __va_start();
  3975  00716E  0E2C               	movlw	low (?_GLCD_Printf+2)
  3976  007170  6E42               	movwf	GLCD_Printf@argp^0,c
  3977  007172  0E00               	movlw	high (?_GLCD_Printf+2)
  3978  007174  6E43               	movwf	(GLCD_Printf@argp+1)^0,c
  3979                           
  3980                           ;glcd.c: 544:     for(ptr = argList; *ptr != '\0'; ptr++)
  3981  007176  C02A  F03E         	movff	GLCD_Printf@argList,GLCD_Printf@ptr
  3982  00717A  C02B  F03F         	movff	GLCD_Printf@argList+1,GLCD_Printf@ptr+1
  3983  00717E  EF9C  F03A         	goto	l2406
  3984  007182                     l2292:
  3985                           
  3986                           ;glcd.c: 545:     {;glcd.c: 547:         ch= *ptr;
  3987  007182  C03E  FFF6         	movff	GLCD_Printf@ptr,tblptrl
  3988  007186  C03F  FFF7         	movff	GLCD_Printf@ptr+1,tblptrh
  3989  00718A                     	if	0	;tblptru may be non-zero
  3990  00718A                     	endif
  3991  00718A                     	if	0	;tblptru may be non-zero
  3992  00718A                     	endif
  3993  00718A  0008               	tblrd		*
  3994  00718C  CFF5 F040          	movff	tablat,GLCD_Printf@ch
  3995  007190                     
  3996                           ;glcd.c: 548:         if(ch == '%')
  3997  007190  0E25               	movlw	37
  3998  007192  1840               	xorwf	GLCD_Printf@ch^0,w,c
  3999  007194  A4D8               	btfss	status,2,c
  4000  007196  EFCF  F038         	goto	u1531
  4001  00719A  EFD1  F038         	goto	u1530
  4002  00719E                     u1531:
  4003  00719E  EF97  F03A         	goto	l2402
  4004  0071A2                     u1530:
  4005  0071A2                     
  4006                           ;glcd.c: 549:         {;glcd.c: 550:             ptr++;
  4007  0071A2  4A3E               	infsnz	GLCD_Printf@ptr^0,f,c
  4008  0071A4  2A3F               	incf	(GLCD_Printf@ptr+1)^0,f,c
  4009  0071A6                     
  4010                           ;glcd.c: 551:             ch = *ptr;
  4011  0071A6  C03E  FFF6         	movff	GLCD_Printf@ptr,tblptrl
  4012  0071AA  C03F  FFF7         	movff	GLCD_Printf@ptr+1,tblptrh
  4013  0071AE                     	if	0	;tblptru may be non-zero
  4014  0071AE                     	endif
  4015  0071AE                     	if	0	;tblptru may be non-zero
  4016  0071AE                     	endif
  4017  0071AE  0008               	tblrd		*
  4018  0071B0  CFF5 F040          	movff	tablat,GLCD_Printf@ch
  4019  0071B4                     
  4020                           ;glcd.c: 552:            if((ch>=0x30) && (ch<=0x39))
  4021  0071B4  0E2F               	movlw	47
  4022  0071B6  6440               	cpfsgt	GLCD_Printf@ch^0,c
  4023  0071B8  EFE0  F038         	goto	u1541
  4024  0071BC  EFE2  F038         	goto	u1540
  4025  0071C0                     u1541:
  4026  0071C0  EF0F  F039         	goto	l263
  4027  0071C4                     u1540:
  4028  0071C4  0E3A               	movlw	58
  4029  0071C6  6040               	cpfslt	GLCD_Printf@ch^0,c
  4030  0071C8  EFE8  F038         	goto	u1551
  4031  0071CC  EFEA  F038         	goto	u1550
  4032  0071D0                     u1551:
  4033  0071D0  EF0F  F039         	goto	l263
  4034  0071D4                     u1550:
  4035  0071D4                     
  4036                           ;glcd.c: 553:             {;glcd.c: 554:                v_numOfDigitsToDisp_u8 = 0;
  4037  0071D4  0E00               	movlw	0
  4038  0071D6  6E41               	movwf	GLCD_Printf@v_numOfDigitsToDisp_u8^0,c
  4039                           
  4040                           ;glcd.c: 555:                while((ch>=0x30) && (ch<=0x39))
  4041  0071D8  EFFD  F038         	goto	l2312
  4042  0071DC                     l2306:
  4043                           
  4044                           ;glcd.c: 556:                 {;glcd.c: 557:                    v_numOfDigitsToDisp_u8 =
      +                           (v_numOfDigitsToDisp_u8 * 10) + (ch-0x30);
  4045  0071DC  5041               	movf	GLCD_Printf@v_numOfDigitsToDisp_u8^0,w,c
  4046  0071DE  0D0A               	mullw	10
  4047  0071E0  50F3               	movf	243,w,c
  4048  0071E2  2440               	addwf	GLCD_Printf@ch^0,w,c
  4049  0071E4  0FD0               	addlw	208
  4050  0071E6  6E41               	movwf	GLCD_Printf@v_numOfDigitsToDisp_u8^0,c
  4051  0071E8                     
  4052                           ;glcd.c: 558:                    ptr++;
  4053  0071E8  4A3E               	infsnz	GLCD_Printf@ptr^0,f,c
  4054  0071EA  2A3F               	incf	(GLCD_Printf@ptr+1)^0,f,c
  4055  0071EC                     
  4056                           ;glcd.c: 559:                    ch = *ptr;
  4057  0071EC  C03E  FFF6         	movff	GLCD_Printf@ptr,tblptrl
  4058  0071F0  C03F  FFF7         	movff	GLCD_Printf@ptr+1,tblptrh
  4059  0071F4                     	if	0	;tblptru may be non-zero
  4060  0071F4                     	endif
  4061  0071F4                     	if	0	;tblptru may be non-zero
  4062  0071F4                     	endif
  4063  0071F4  0008               	tblrd		*
  4064  0071F6  CFF5 F040          	movff	tablat,GLCD_Printf@ch
  4065  0071FA                     l2312:
  4066                           
  4067                           ;glcd.c: 555:                while((ch>=0x30) && (ch<=0x39))
  4068  0071FA  0E2F               	movlw	47
  4069  0071FC  6440               	cpfsgt	GLCD_Printf@ch^0,c
  4070  0071FE  EF03  F039         	goto	u1561
  4071  007202  EF05  F039         	goto	u1560
  4072  007206                     u1561:
  4073  007206  EF12  F039         	goto	l269
  4074  00720A                     u1560:
  4075  00720A  0E39               	movlw	57
  4076  00720C  6440               	cpfsgt	GLCD_Printf@ch^0,c
  4077  00720E  EF0B  F039         	goto	u1571
  4078  007212  EF0D  F039         	goto	u1570
  4079  007216                     u1571:
  4080  007216  EFEE  F038         	goto	l2306
  4081  00721A                     u1570:
  4082  00721A  EF4C  F03A         	goto	l2400
  4083  00721E                     l263:
  4084                           
  4085                           ;glcd.c: 563:             {;glcd.c: 564:               v_numOfDigitsToDisp_u8 = 0xffu;
  4086  00721E  6841               	setf	GLCD_Printf@v_numOfDigitsToDisp_u8^0,c
  4087  007220  EF4C  F03A         	goto	l2400
  4088  007224                     l269:
  4089                           
  4090                           ;glcd.c: 568:             switch(ch)
  4091  007224  EF4C  F03A         	goto	l2400
  4092  007228                     l2316:
  4093                           
  4094                           ;glcd.c: 572:                 ch = (*(int *)__va_arg(*(int **)argp, (int)0));
  4095  007228  C042  FFD9         	movff	GLCD_Printf@argp,fsr2l
  4096  00722C  C043  FFDA         	movff	GLCD_Printf@argp+1,fsr2h
  4097  007230  50DF               	movf	indf2,w,c
  4098  007232  6E40               	movwf	GLCD_Printf@ch^0,c
  4099  007234  0E02               	movlw	2
  4100  007236  2642               	addwf	GLCD_Printf@argp^0,f,c
  4101  007238  0E00               	movlw	0
  4102  00723A  2243               	addwfc	(GLCD_Printf@argp+1)^0,f,c
  4103  00723C                     
  4104                           ;glcd.c: 573:                 GLCD_DisplayChar(ch);
  4105  00723C  5040               	movf	GLCD_Printf@ch^0,w,c
  4106  00723E  ECEA  F035         	call	_GLCD_DisplayChar
  4107                           
  4108                           ;glcd.c: 574:                 break;
  4109  007242  EF9A  F03A         	goto	l2404
  4110  007246                     l2322:
  4111                           
  4112                           ;glcd.c: 577:                 v_num_s16 = (*(int *)__va_arg(*(int **)argp, (int)0));
  4113  007246  C042  FFD9         	movff	GLCD_Printf@argp,fsr2l
  4114  00724A  C043  FFDA         	movff	GLCD_Printf@argp+1,fsr2h
  4115  00724E  CFDE F034          	movff	postinc2,GLCD_Printf@v_num_s16
  4116  007252  CFDD F035          	movff	postdec2,GLCD_Printf@v_num_s16+1
  4117  007256  0E02               	movlw	2
  4118  007258  2642               	addwf	GLCD_Printf@argp^0,f,c
  4119  00725A  0E00               	movlw	0
  4120  00725C  2243               	addwfc	(GLCD_Printf@argp+1)^0,f,c
  4121  00725E                     
  4122                           ;glcd.c: 578:                 if(v_num_s16<0)
  4123  00725E  BE35               	btfsc	(GLCD_Printf@v_num_s16+1)^0,7,c
  4124  007260  EF36  F039         	goto	u1580
  4125  007264  EF34  F039         	goto	u1581
  4126  007268                     u1581:
  4127  007268  EF3D  F039         	goto	l2332
  4128  00726C                     u1580:
  4129  00726C                     
  4130                           ;glcd.c: 579:                  {;glcd.c: 580:                    v_num_s16 = -v_num_s16;
  4131  00726C  6C34               	negf	GLCD_Printf@v_num_s16^0,c
  4132  00726E  1E35               	comf	(GLCD_Printf@v_num_s16+1)^0,f,c
  4133  007270  B0D8               	btfsc	status,0,c
  4134  007272  2A35               	incf	(GLCD_Printf@v_num_s16+1)^0,f,c
  4135  007274                     
  4136                           ;glcd.c: 581:                    GLCD_DisplayChar('-');
  4137  007274  0E2D               	movlw	45
  4138  007276  ECEA  F035         	call	_GLCD_DisplayChar
  4139  00727A                     l2332:
  4140                           
  4141                           ;glcd.c: 583:                 GLCD_DisplayNumber(10u,v_num_s16,v_numOfDigitsToDisp_u8);
  4142  00727A  C034  F00E         	movff	GLCD_Printf@v_num_s16,GLCD_DisplayNumber@v_number_u32
  4143  00727E  C035  F00F         	movff	GLCD_Printf@v_num_s16+1,GLCD_DisplayNumber@v_number_u32+1
  4144  007282  0E00               	movlw	0
  4145  007284  BE0F               	btfsc	(GLCD_DisplayNumber@v_number_u32+1)^0,7,c
  4146  007286  0EFF               	movlw	-1
  4147  007288  6E10               	movwf	(GLCD_DisplayNumber@v_number_u32+2)^0,c
  4148  00728A  6E11               	movwf	(GLCD_DisplayNumber@v_number_u32+3)^0,c
  4149  00728C  C041  F012         	movff	GLCD_Printf@v_numOfDigitsToDisp_u8,GLCD_DisplayNumber@v_numOfDigitsToDisplay_u8
  4150  007290  0E0A               	movlw	10
  4151  007292  EC86  F037         	call	_GLCD_DisplayNumber
  4152                           
  4153                           ;glcd.c: 584:                 break;
  4154  007296  EF9A  F03A         	goto	l2404
  4155  00729A                     l2334:
  4156                           
  4157                           ;glcd.c: 587:                 v_num_s32 = (*(sint32_t *)__va_arg(*(sint32_t **)argp, (si
      +                          nt32_t)0));
  4158  00729A  C042  FFD9         	movff	GLCD_Printf@argp,fsr2l
  4159  00729E  C043  FFDA         	movff	GLCD_Printf@argp+1,fsr2h
  4160  0072A2  CFDE F036          	movff	postinc2,GLCD_Printf@v_num_s32
  4161  0072A6  CFDD F037          	movff	postdec2,GLCD_Printf@v_num_s32+1
  4162  0072AA  0E02               	movlw	2
  4163  0072AC  2642               	addwf	GLCD_Printf@argp^0,f,c
  4164  0072AE  0E00               	movlw	0
  4165  0072B0  2243               	addwfc	(GLCD_Printf@argp+1)^0,f,c
  4166  0072B2                     
  4167                           ;glcd.c: 588:                 if(v_num_s32<0)
  4168  0072B2  BE37               	btfsc	(GLCD_Printf@v_num_s32+1)^0,7,c
  4169  0072B4  EF60  F039         	goto	u1590
  4170  0072B8  EF5E  F039         	goto	u1591
  4171  0072BC                     u1591:
  4172  0072BC  EF67  F039         	goto	l2344
  4173  0072C0                     u1590:
  4174  0072C0                     
  4175                           ;glcd.c: 589:                  {;glcd.c: 590:                    v_num_s32 = -v_num_s32;
  4176  0072C0  6C36               	negf	GLCD_Printf@v_num_s32^0,c
  4177  0072C2  1E37               	comf	(GLCD_Printf@v_num_s32+1)^0,f,c
  4178  0072C4  B0D8               	btfsc	status,0,c
  4179  0072C6  2A37               	incf	(GLCD_Printf@v_num_s32+1)^0,f,c
  4180  0072C8                     
  4181                           ;glcd.c: 591:                    GLCD_DisplayChar('-');
  4182  0072C8  0E2D               	movlw	45
  4183  0072CA  ECEA  F035         	call	_GLCD_DisplayChar
  4184  0072CE                     l2344:
  4185                           
  4186                           ;glcd.c: 593:                 GLCD_DisplayNumber(10u,v_num_s32,v_numOfDigitsToDisp_u8);
  4187  0072CE  C036  F00E         	movff	GLCD_Printf@v_num_s32,GLCD_DisplayNumber@v_number_u32
  4188  0072D2  C037  F00F         	movff	GLCD_Printf@v_num_s32+1,GLCD_DisplayNumber@v_number_u32+1
  4189  0072D6  0E00               	movlw	0
  4190  0072D8  BE0F               	btfsc	(GLCD_DisplayNumber@v_number_u32+1)^0,7,c
  4191  0072DA  0EFF               	movlw	-1
  4192  0072DC  6E10               	movwf	(GLCD_DisplayNumber@v_number_u32+2)^0,c
  4193  0072DE  6E11               	movwf	(GLCD_DisplayNumber@v_number_u32+3)^0,c
  4194  0072E0  C041  F012         	movff	GLCD_Printf@v_numOfDigitsToDisp_u8,GLCD_DisplayNumber@v_numOfDigitsToDisplay_u8
  4195  0072E4  0E0A               	movlw	10
  4196  0072E6  EC86  F037         	call	_GLCD_DisplayNumber
  4197                           
  4198                           ;glcd.c: 594:                 break;
  4199  0072EA  EF9A  F03A         	goto	l2404
  4200  0072EE                     l2346:
  4201                           
  4202                           ;glcd.c: 597:                 v_num_u16 = (*(int *)__va_arg(*(int **)argp, (int)0));
  4203  0072EE  C042  FFD9         	movff	GLCD_Printf@argp,fsr2l
  4204  0072F2  C043  FFDA         	movff	GLCD_Printf@argp+1,fsr2h
  4205  0072F6  CFDE F03C          	movff	postinc2,GLCD_Printf@v_num_u16
  4206  0072FA  CFDD F03D          	movff	postdec2,GLCD_Printf@v_num_u16+1
  4207  0072FE  0E02               	movlw	2
  4208  007300  2642               	addwf	GLCD_Printf@argp^0,f,c
  4209  007302  0E00               	movlw	0
  4210  007304  2243               	addwfc	(GLCD_Printf@argp+1)^0,f,c
  4211  007306                     
  4212                           ;glcd.c: 598:                 GLCD_DisplayNumber(10u,v_num_u16,v_numOfDigitsToDisp_u8);
  4213  007306  C03C  F00E         	movff	GLCD_Printf@v_num_u16,GLCD_DisplayNumber@v_number_u32
  4214  00730A  C03D  F00F         	movff	GLCD_Printf@v_num_u16+1,GLCD_DisplayNumber@v_number_u32+1
  4215  00730E  6A10               	clrf	(GLCD_DisplayNumber@v_number_u32+2)^0,c
  4216  007310  6A11               	clrf	(GLCD_DisplayNumber@v_number_u32+3)^0,c
  4217  007312  C041  F012         	movff	GLCD_Printf@v_numOfDigitsToDisp_u8,GLCD_DisplayNumber@v_numOfDigitsToDisplay_u8
  4218  007316  0E0A               	movlw	10
  4219  007318  EC86  F037         	call	_GLCD_DisplayNumber
  4220                           
  4221                           ;glcd.c: 599:                 break;
  4222  00731C  EF9A  F03A         	goto	l2404
  4223  007320                     l2352:
  4224                           
  4225                           ;glcd.c: 602:                 v_num_u32 = (*(uint32_t *)__va_arg(*(uint32_t **)argp, (ui
      +                          nt32_t)0));
  4226  007320  C042  FFD9         	movff	GLCD_Printf@argp,fsr2l
  4227  007324  C043  FFDA         	movff	GLCD_Printf@argp+1,fsr2h
  4228  007328  CFDE F038          	movff	postinc2,GLCD_Printf@v_num_u32
  4229  00732C  CFDE F039          	movff	postinc2,GLCD_Printf@v_num_u32+1
  4230  007330  CFDE F03A          	movff	postinc2,GLCD_Printf@v_num_u32+2
  4231  007334  CFDE F03B          	movff	postinc2,GLCD_Printf@v_num_u32+3
  4232  007338  0E04               	movlw	4
  4233  00733A  2642               	addwf	GLCD_Printf@argp^0,f,c
  4234  00733C  0E00               	movlw	0
  4235  00733E  2243               	addwfc	(GLCD_Printf@argp+1)^0,f,c
  4236  007340                     
  4237                           ;glcd.c: 603:                 GLCD_DisplayNumber(10u,v_num_u32,v_numOfDigitsToDisp_u8);
  4238  007340  C038  F00E         	movff	GLCD_Printf@v_num_u32,GLCD_DisplayNumber@v_number_u32
  4239  007344  C039  F00F         	movff	GLCD_Printf@v_num_u32+1,GLCD_DisplayNumber@v_number_u32+1
  4240  007348  C03A  F010         	movff	GLCD_Printf@v_num_u32+2,GLCD_DisplayNumber@v_number_u32+2
  4241  00734C  C03B  F011         	movff	GLCD_Printf@v_num_u32+3,GLCD_DisplayNumber@v_number_u32+3
  4242  007350  C041  F012         	movff	GLCD_Printf@v_numOfDigitsToDisp_u8,GLCD_DisplayNumber@v_numOfDigitsToDisplay_u8
  4243  007354  0E0A               	movlw	10
  4244  007356  EC86  F037         	call	_GLCD_DisplayNumber
  4245                           
  4246                           ;glcd.c: 604:                 break;
  4247  00735A  EF9A  F03A         	goto	l2404
  4248  00735E                     l2358:
  4249                           
  4250                           ;glcd.c: 607:                 v_num_u16 = (*(int *)__va_arg(*(int **)argp, (int)0));
  4251  00735E  C042  FFD9         	movff	GLCD_Printf@argp,fsr2l
  4252  007362  C043  FFDA         	movff	GLCD_Printf@argp+1,fsr2h
  4253  007366  CFDE F03C          	movff	postinc2,GLCD_Printf@v_num_u16
  4254  00736A  CFDD F03D          	movff	postdec2,GLCD_Printf@v_num_u16+1
  4255  00736E  0E02               	movlw	2
  4256  007370  2642               	addwf	GLCD_Printf@argp^0,f,c
  4257  007372  0E00               	movlw	0
  4258  007374  2243               	addwfc	(GLCD_Printf@argp+1)^0,f,c
  4259  007376                     
  4260                           ;glcd.c: 608:                 GLCD_DisplayNumber(16u,v_num_u16,v_numOfDigitsToDisp_u8);
  4261  007376  C03C  F00E         	movff	GLCD_Printf@v_num_u16,GLCD_DisplayNumber@v_number_u32
  4262  00737A  C03D  F00F         	movff	GLCD_Printf@v_num_u16+1,GLCD_DisplayNumber@v_number_u32+1
  4263  00737E  6A10               	clrf	(GLCD_DisplayNumber@v_number_u32+2)^0,c
  4264  007380  6A11               	clrf	(GLCD_DisplayNumber@v_number_u32+3)^0,c
  4265  007382  C041  F012         	movff	GLCD_Printf@v_numOfDigitsToDisp_u8,GLCD_DisplayNumber@v_numOfDigitsToDisplay_u8
  4266  007386  0E10               	movlw	16
  4267  007388  EC86  F037         	call	_GLCD_DisplayNumber
  4268                           
  4269                           ;glcd.c: 609:                 break;
  4270  00738C  EF9A  F03A         	goto	l2404
  4271  007390                     l2364:
  4272                           
  4273                           ;glcd.c: 612:                 v_num_u32 = (*(uint32_t *)__va_arg(*(uint32_t **)argp, (ui
      +                          nt32_t)0));
  4274  007390  C042  FFD9         	movff	GLCD_Printf@argp,fsr2l
  4275  007394  C043  FFDA         	movff	GLCD_Printf@argp+1,fsr2h
  4276  007398  CFDE F038          	movff	postinc2,GLCD_Printf@v_num_u32
  4277  00739C  CFDE F039          	movff	postinc2,GLCD_Printf@v_num_u32+1
  4278  0073A0  CFDE F03A          	movff	postinc2,GLCD_Printf@v_num_u32+2
  4279  0073A4  CFDE F03B          	movff	postinc2,GLCD_Printf@v_num_u32+3
  4280  0073A8  0E04               	movlw	4
  4281  0073AA  2642               	addwf	GLCD_Printf@argp^0,f,c
  4282  0073AC  0E00               	movlw	0
  4283  0073AE  2243               	addwfc	(GLCD_Printf@argp+1)^0,f,c
  4284  0073B0                     
  4285                           ;glcd.c: 613:                 GLCD_DisplayNumber(16u,v_num_u32,v_numOfDigitsToDisp_u8);
  4286  0073B0  C038  F00E         	movff	GLCD_Printf@v_num_u32,GLCD_DisplayNumber@v_number_u32
  4287  0073B4  C039  F00F         	movff	GLCD_Printf@v_num_u32+1,GLCD_DisplayNumber@v_number_u32+1
  4288  0073B8  C03A  F010         	movff	GLCD_Printf@v_num_u32+2,GLCD_DisplayNumber@v_number_u32+2
  4289  0073BC  C03B  F011         	movff	GLCD_Printf@v_num_u32+3,GLCD_DisplayNumber@v_number_u32+3
  4290  0073C0  C041  F012         	movff	GLCD_Printf@v_numOfDigitsToDisp_u8,GLCD_DisplayNumber@v_numOfDigitsToDisplay_u8
  4291  0073C4  0E10               	movlw	16
  4292  0073C6  EC86  F037         	call	_GLCD_DisplayNumber
  4293                           
  4294                           ;glcd.c: 614:                 break;
  4295  0073CA  EF9A  F03A         	goto	l2404
  4296  0073CE                     l2370:
  4297                           
  4298                           ;glcd.c: 618:                 v_num_u16 = (*(int *)__va_arg(*(int **)argp, (int)0));
  4299  0073CE  C042  FFD9         	movff	GLCD_Printf@argp,fsr2l
  4300  0073D2  C043  FFDA         	movff	GLCD_Printf@argp+1,fsr2h
  4301  0073D6  CFDE F03C          	movff	postinc2,GLCD_Printf@v_num_u16
  4302  0073DA  CFDD F03D          	movff	postdec2,GLCD_Printf@v_num_u16+1
  4303  0073DE  0E02               	movlw	2
  4304  0073E0  2642               	addwf	GLCD_Printf@argp^0,f,c
  4305  0073E2  0E00               	movlw	0
  4306  0073E4  2243               	addwfc	(GLCD_Printf@argp+1)^0,f,c
  4307  0073E6                     
  4308                           ;glcd.c: 619:                 if(v_numOfDigitsToDisp_u8 == 0xffu)
  4309  0073E6  2841               	incf	GLCD_Printf@v_numOfDigitsToDisp_u8^0,w,c
  4310  0073E8  A4D8               	btfss	status,2,c
  4311  0073EA  EFF9  F039         	goto	u1601
  4312  0073EE  EFFB  F039         	goto	u1600
  4313  0073F2                     u1601:
  4314  0073F2  EFFD  F039         	goto	l2378
  4315  0073F6                     u1600:
  4316  0073F6                     
  4317                           ;glcd.c: 620:                    v_numOfDigitsToDisp_u8 = 16;
  4318  0073F6  0E10               	movlw	16
  4319  0073F8  6E41               	movwf	GLCD_Printf@v_numOfDigitsToDisp_u8^0,c
  4320  0073FA                     l2378:
  4321                           
  4322                           ;glcd.c: 621:                 GLCD_DisplayNumber(2u,v_num_u16,v_numOfDigitsToDisp_u8);
  4323  0073FA  C03C  F00E         	movff	GLCD_Printf@v_num_u16,GLCD_DisplayNumber@v_number_u32
  4324  0073FE  C03D  F00F         	movff	GLCD_Printf@v_num_u16+1,GLCD_DisplayNumber@v_number_u32+1
  4325  007402  6A10               	clrf	(GLCD_DisplayNumber@v_number_u32+2)^0,c
  4326  007404  6A11               	clrf	(GLCD_DisplayNumber@v_number_u32+3)^0,c
  4327  007406  C041  F012         	movff	GLCD_Printf@v_numOfDigitsToDisp_u8,GLCD_DisplayNumber@v_numOfDigitsToDisplay_u8
  4328  00740A  0E02               	movlw	2
  4329  00740C  EC86  F037         	call	_GLCD_DisplayNumber
  4330                           
  4331                           ;glcd.c: 622:                 break;
  4332  007410  EF9A  F03A         	goto	l2404
  4333  007414                     l2380:
  4334                           
  4335                           ;glcd.c: 625:                 v_num_u32 = (*(uint32_t *)__va_arg(*(uint32_t **)argp, (ui
      +                          nt32_t)0));
  4336  007414  C042  FFD9         	movff	GLCD_Printf@argp,fsr2l
  4337  007418  C043  FFDA         	movff	GLCD_Printf@argp+1,fsr2h
  4338  00741C  CFDE F038          	movff	postinc2,GLCD_Printf@v_num_u32
  4339  007420  CFDE F039          	movff	postinc2,GLCD_Printf@v_num_u32+1
  4340  007424  CFDE F03A          	movff	postinc2,GLCD_Printf@v_num_u32+2
  4341  007428  CFDE F03B          	movff	postinc2,GLCD_Printf@v_num_u32+3
  4342  00742C  0E04               	movlw	4
  4343  00742E  2642               	addwf	GLCD_Printf@argp^0,f,c
  4344  007430  0E00               	movlw	0
  4345  007432  2243               	addwfc	(GLCD_Printf@argp+1)^0,f,c
  4346  007434                     
  4347                           ;glcd.c: 626:                 if(v_numOfDigitsToDisp_u8 == 0xffu)
  4348  007434  2841               	incf	GLCD_Printf@v_numOfDigitsToDisp_u8^0,w,c
  4349  007436  A4D8               	btfss	status,2,c
  4350  007438  EF20  F03A         	goto	u1611
  4351  00743C  EF22  F03A         	goto	u1610
  4352  007440                     u1611:
  4353  007440  EF24  F03A         	goto	l2388
  4354  007444                     u1610:
  4355  007444                     
  4356                           ;glcd.c: 627:                    v_numOfDigitsToDisp_u8 = 16;
  4357  007444  0E10               	movlw	16
  4358  007446  6E41               	movwf	GLCD_Printf@v_numOfDigitsToDisp_u8^0,c
  4359  007448                     l2388:
  4360                           
  4361                           ;glcd.c: 628:                 GLCD_DisplayNumber(2u,v_num_u32,v_numOfDigitsToDisp_u8);
  4362  007448  C038  F00E         	movff	GLCD_Printf@v_num_u32,GLCD_DisplayNumber@v_number_u32
  4363  00744C  C039  F00F         	movff	GLCD_Printf@v_num_u32+1,GLCD_DisplayNumber@v_number_u32+1
  4364  007450  C03A  F010         	movff	GLCD_Printf@v_num_u32+2,GLCD_DisplayNumber@v_number_u32+2
  4365  007454  C03B  F011         	movff	GLCD_Printf@v_num_u32+3,GLCD_DisplayNumber@v_number_u32+3
  4366  007458  C041  F012         	movff	GLCD_Printf@v_numOfDigitsToDisp_u8,GLCD_DisplayNumber@v_numOfDigitsToDisplay_u8
  4367  00745C  0E02               	movlw	2
  4368  00745E  EC86  F037         	call	_GLCD_DisplayNumber
  4369                           
  4370                           ;glcd.c: 629:                 break;
  4371  007462  EF9A  F03A         	goto	l2404
  4372  007466                     l2390:
  4373                           
  4374                           ;glcd.c: 643:                 str = (*(char * *)__va_arg(*(char * **)argp, (char *)0));
  4375  007466  C042  FFD9         	movff	GLCD_Printf@argp,fsr2l
  4376  00746A  C043  FFDA         	movff	GLCD_Printf@argp+1,fsr2h
  4377  00746E  CFDE F032          	movff	postinc2,GLCD_Printf@str
  4378  007472  CFDD F033          	movff	postdec2,GLCD_Printf@str+1
  4379  007476  0E02               	movlw	2
  4380  007478  2642               	addwf	GLCD_Printf@argp^0,f,c
  4381  00747A  0E00               	movlw	0
  4382  00747C  2243               	addwfc	(GLCD_Printf@argp+1)^0,f,c
  4383  00747E                     
  4384                           ;glcd.c: 644:                 GLCD_DisplayString(str);
  4385  00747E  C032  F00A         	movff	GLCD_Printf@str,GLCD_DisplayString@ptr
  4386  007482  C033  F00B         	movff	GLCD_Printf@str+1,GLCD_DisplayString@ptr+1
  4387  007486  ECE9  F032         	call	_GLCD_DisplayString	;wreg free
  4388                           
  4389                           ;glcd.c: 645:                 break;
  4390  00748A  EF9A  F03A         	goto	l2404
  4391  00748E                     l2396:
  4392                           
  4393                           ;glcd.c: 648:                 GLCD_DisplayChar('%');
  4394  00748E  0E25               	movlw	37
  4395  007490  ECEA  F035         	call	_GLCD_DisplayChar
  4396                           
  4397                           ;glcd.c: 649:                 break;
  4398  007494  EF9A  F03A         	goto	l2404
  4399  007498                     l2400:
  4400  007498  5040               	movf	GLCD_Printf@ch^0,w,c
  4401  00749A  6E30               	movwf	??_GLCD_Printf^0,c
  4402  00749C  6A31               	clrf	(??_GLCD_Printf+1)^0,c
  4403                           
  4404                           ; Switch on 2 bytes has been partitioned into a top level switch of size 1, and 1 sub-sw
      +                          itches
  4405                           ; Switch size 1, requested type "simple"
  4406                           ; Number of cases is 1, Range of values is 0 to 0
  4407                           ; switch strategies available:
  4408                           ; Name         Instructions Cycles
  4409                           ; simple_byte            4     3 (average)
  4410                           ;	Chosen strategy is simple_byte
  4411  00749E  5031               	movf	(??_GLCD_Printf+1)^0,w,c
  4412  0074A0  0A00               	xorlw	0	; case 0
  4413  0074A2  B4D8               	btfsc	status,2,c
  4414  0074A4  EF56  F03A         	goto	l2952
  4415  0074A8  EF9A  F03A         	goto	l2404
  4416  0074AC                     l2952:
  4417                           
  4418                           ; Switch size 1, requested type "simple"
  4419                           ; Number of cases is 15, Range of values is 37 to 120
  4420                           ; switch strategies available:
  4421                           ; Name         Instructions Cycles
  4422                           ; simple_byte           46    24 (average)
  4423                           ;	Chosen strategy is simple_byte
  4424  0074AC  5030               	movf	??_GLCD_Printf^0,w,c
  4425  0074AE  0A25               	xorlw	37	; case 37
  4426  0074B0  B4D8               	btfsc	status,2,c
  4427  0074B2  EF47  F03A         	goto	l2396
  4428  0074B6  0A67               	xorlw	103	; case 66
  4429  0074B8  B4D8               	btfsc	status,2,c
  4430  0074BA  EF0A  F03A         	goto	l2380
  4431  0074BE  0A01               	xorlw	1	; case 67
  4432  0074C0  B4D8               	btfsc	status,2,c
  4433  0074C2  EF14  F039         	goto	l2316
  4434  0074C6  0A07               	xorlw	7	; case 68
  4435  0074C8  B4D8               	btfsc	status,2,c
  4436  0074CA  EF4D  F039         	goto	l2334
  4437  0074CE  0A02               	xorlw	2	; case 70
  4438  0074D0  B4D8               	btfsc	status,2,c
  4439  0074D2  EF95  F03A         	goto	l273
  4440  0074D6  0A15               	xorlw	21	; case 83
  4441  0074D8  B4D8               	btfsc	status,2,c
  4442  0074DA  EF33  F03A         	goto	l2390
  4443  0074DE  0A06               	xorlw	6	; case 85
  4444  0074E0  B4D8               	btfsc	status,2,c
  4445  0074E2  EF90  F039         	goto	l2352
  4446  0074E6  0A0D               	xorlw	13	; case 88
  4447  0074E8  B4D8               	btfsc	status,2,c
  4448  0074EA  EFC8  F039         	goto	l2364
  4449  0074EE  0A3A               	xorlw	58	; case 98
  4450  0074F0  B4D8               	btfsc	status,2,c
  4451  0074F2  EFE7  F039         	goto	l2370
  4452  0074F6  0A01               	xorlw	1	; case 99
  4453  0074F8  B4D8               	btfsc	status,2,c
  4454  0074FA  EF14  F039         	goto	l2316
  4455  0074FE  0A07               	xorlw	7	; case 100
  4456  007500  B4D8               	btfsc	status,2,c
  4457  007502  EF23  F039         	goto	l2322
  4458  007506  0A02               	xorlw	2	; case 102
  4459  007508  B4D8               	btfsc	status,2,c
  4460  00750A  EF9A  F03A         	goto	l2404
  4461  00750E  0A15               	xorlw	21	; case 115
  4462  007510  B4D8               	btfsc	status,2,c
  4463  007512  EF33  F03A         	goto	l2390
  4464  007516  0A06               	xorlw	6	; case 117
  4465  007518  B4D8               	btfsc	status,2,c
  4466  00751A  EF77  F039         	goto	l2346
  4467  00751E  0A0D               	xorlw	13	; case 120
  4468  007520  B4D8               	btfsc	status,2,c
  4469  007522  EFAF  F039         	goto	l2358
  4470  007526  EF9A  F03A         	goto	l2404
  4471  00752A                     l273:
  4472                           
  4473                           ;glcd.c: 651:         }
  4474  00752A  EF9A  F03A         	goto	l2404
  4475  00752E                     l2402:
  4476                           
  4477                           ;glcd.c: 653:         {;glcd.c: 655:             GLCD_DisplayChar(ch);
  4478  00752E  5040               	movf	GLCD_Printf@ch^0,w,c
  4479  007530  ECEA  F035         	call	_GLCD_DisplayChar
  4480  007534                     l2404:
  4481                           
  4482                           ;glcd.c: 657:     }
  4483  007534  4A3E               	infsnz	GLCD_Printf@ptr^0,f,c
  4484  007536  2A3F               	incf	(GLCD_Printf@ptr+1)^0,f,c
  4485  007538                     l2406:
  4486  007538  C03E  FFF6         	movff	GLCD_Printf@ptr,tblptrl
  4487  00753C  C03F  FFF7         	movff	GLCD_Printf@ptr+1,tblptrh
  4488  007540                     	if	0	;tblptru may be non-zero
  4489  007540                     	endif
  4490  007540                     	if	0	;tblptru may be non-zero
  4491  007540                     	endif
  4492  007540  0008               	tblrd		*
  4493  007542  50F5               	movf	tablat,w,c
  4494  007544  0900               	iorlw	0
  4495  007546  A4D8               	btfss	status,2,c
  4496  007548  EFA8  F03A         	goto	u1621
  4497  00754C  EFAA  F03A         	goto	u1620
  4498  007550                     u1621:
  4499  007550  EFC1  F038         	goto	l2292
  4500  007554                     u1620:
  4501  007554  0012               	return		;funcret
  4502  007556                     __end_of_GLCD_Printf:
  4503                           	callstack 0
  4504                           
  4505 ;; *************** function _GLCD_DisplayString *****************
  4506 ;; Defined at:
  4507 ;;		line 274 in file "glcd.c"
  4508 ;; Parameters:    Size  Location     Type
  4509 ;;  ptr             2    9[COMRAM] PTR unsigned char 
  4510 ;;		 -> ?_GLCD_Printf(1), 
  4511 ;; Auto vars:     Size  Location     Type
  4512 ;;		None
  4513 ;; Return value:  Size  Location     Type
  4514 ;;                  1    wreg      void 
  4515 ;; Registers used:
  4516 ;;		wreg, fsr2l, fsr2h, status,2, status,0, tblptrl, tblptrh, tblptru, prodl, prodh, cstack
  4517 ;; Tracked objects:
  4518 ;;		On entry : 0/0
  4519 ;;		On exit  : 0/0
  4520 ;;		Unchanged: 0/0
  4521 ;; Data sizes:     COMRAM   BANK0   BANK1   BANK2   BANK3   BANK4   BANK5   BANK6   BANK7
  4522 ;;      Params:         2       0       0       0       0       0       0       0       0
  4523 ;;      Locals:         0       0       0       0       0       0       0       0       0
  4524 ;;      Temps:          0       0       0       0       0       0       0       0       0
  4525 ;;      Totals:         2       0       0       0       0       0       0       0       0
  4526 ;;Total ram usage:        2 bytes
  4527 ;; Hardware stack levels used:    1
  4528 ;; Hardware stack levels required when called:    6
  4529 ;; This function calls:
  4530 ;;		_GLCD_DisplayChar
  4531 ;; This function is called by:
  4532 ;;		_GLCD_Printf
  4533 ;; This function uses a non-reentrant model
  4534 ;;
  4535                           
  4536                           	psect	text8
  4537  0065D2                     __ptext8:
  4538                           	callstack 0
  4539  0065D2                     _GLCD_DisplayString:
  4540                           	callstack 22
  4541  0065D2                     
  4542                           ;glcd.c: 274: void GLCD_DisplayString(uint8_t *ptr);glcd.c: 275: {;glcd.c: 276:  while(*
      +                          ptr)
  4543  0065D2  EFF4  F032         	goto	l2122
  4544  0065D6                     l2118:
  4545                           
  4546                           ;glcd.c: 277:   GLCD_DisplayChar(*ptr++);
  4547  0065D6  C00A  FFD9         	movff	GLCD_DisplayString@ptr,fsr2l
  4548  0065DA  C00B  FFDA         	movff	GLCD_DisplayString@ptr+1,fsr2h
  4549  0065DE  50DF               	movf	indf2,w,c
  4550  0065E0  ECEA  F035         	call	_GLCD_DisplayChar
  4551  0065E4  4A0A               	infsnz	GLCD_DisplayString@ptr^0,f,c
  4552  0065E6  2A0B               	incf	(GLCD_DisplayString@ptr+1)^0,f,c
  4553  0065E8                     l2122:
  4554                           
  4555                           ;glcd.c: 276:  while(*ptr)
  4556  0065E8  C00A  FFD9         	movff	GLCD_DisplayString@ptr,fsr2l
  4557  0065EC  C00B  FFDA         	movff	GLCD_DisplayString@ptr+1,fsr2h
  4558  0065F0  50DF               	movf	indf2,w,c
  4559  0065F2  A4D8               	btfss	status,2,c
  4560  0065F4  EFFE  F032         	goto	u1221
  4561  0065F8  EF00  F033         	goto	u1220
  4562  0065FC                     u1221:
  4563  0065FC  EFEB  F032         	goto	l2118
  4564  006600                     u1220:
  4565  006600  0012               	return		;funcret
  4566  006602                     __end_of_GLCD_DisplayString:
  4567                           	callstack 0
  4568                           
  4569 ;; *************** function _GLCD_DisplayNumber *****************
  4570 ;; Defined at:
  4571 ;;		line 389 in file "glcd.c"
  4572 ;; Parameters:    Size  Location     Type
  4573 ;;  v_numericSys    1    wreg     unsigned char 
  4574 ;;  v_number_u32    4   13[COMRAM] unsigned long 
  4575 ;;  v_numOfDigit    1   17[COMRAM] unsigned char 
  4576 ;; Auto vars:     Size  Location     Type
  4577 ;;  v_numericSys    1   39[COMRAM] unsigned char 
  4578 ;;  a              10   27[COMRAM] unsigned char [10]
  4579 ;;  i               1   40[COMRAM] unsigned char 
  4580 ;; Return value:  Size  Location     Type
  4581 ;;                  1    wreg      void 
  4582 ;; Registers used:
  4583 ;;		wreg, fsr2l, fsr2h, status,2, status,0, tblptrl, tblptrh, tblptru, prodl, prodh, cstack
  4584 ;; Tracked objects:
  4585 ;;		On entry : 0/0
  4586 ;;		On exit  : 0/0
  4587 ;;		Unchanged: 0/0
  4588 ;; Data sizes:     COMRAM   BANK0   BANK1   BANK2   BANK3   BANK4   BANK5   BANK6   BANK7
  4589 ;;      Params:         5       0       0       0       0       0       0       0       0
  4590 ;;      Locals:        14       0       0       0       0       0       0       0       0
  4591 ;;      Temps:          9       0       0       0       0       0       0       0       0
  4592 ;;      Totals:        28       0       0       0       0       0       0       0       0
  4593 ;;Total ram usage:       28 bytes
  4594 ;; Hardware stack levels used:    1
  4595 ;; Hardware stack levels required when called:    6
  4596 ;; This function calls:
  4597 ;;		_GLCD_DisplayChar
  4598 ;;		___lldiv
  4599 ;; This function is called by:
  4600 ;;		_GLCD_Printf
  4601 ;;		_GLCD_VerticalGraph
  4602 ;;		_GLCD_HorizontalGraph
  4603 ;; This function uses a non-reentrant model
  4604 ;;
  4605                           
  4606                           	psect	text9
  4607  006F0C                     __ptext9:
  4608                           	callstack 0
  4609  006F0C                     _GLCD_DisplayNumber:
  4610                           	callstack 22
  4611                           
  4612                           ;incstack = 0
  4613                           ;GLCD_DisplayNumber@v_numericSystem_u8 stored from wreg
  4614  006F0C  6E28               	movwf	GLCD_DisplayNumber@v_numericSystem_u8^0,c
  4615  006F0E                     
  4616                           ;glcd.c: 393:     if(2u == v_numericSystem_u8)
  4617  006F0E  0E02               	movlw	2
  4618  006F10  1828               	xorwf	GLCD_DisplayNumber@v_numericSystem_u8^0,w,c
  4619  006F12  A4D8               	btfss	status,2,c
  4620  006F14  EF8E  F037         	goto	u1231
  4621  006F18  EF90  F037         	goto	u1230
  4622  006F1C                     u1231:
  4623  006F1C  EFCF  F037         	goto	l2138
  4624  006F20                     u1230:
  4625  006F20  EFC5  F037         	goto	l2136
  4626  006F24                     l2130:
  4627                           
  4628                           ;glcd.c: 396:         {;glcd.c: 399:           i = (((v_number_u32)&(((uint32_t)1<<((v_n
      +                          umOfDigitsToDisplay_u8-1)))))!=0u);
  4629  006F24  C012  F013         	movff	GLCD_DisplayNumber@v_numOfDigitsToDisplay_u8,??_GLCD_DisplayNumber
  4630  006F28  0EFF               	movlw	-1
  4631  006F2A  2613               	addwf	??_GLCD_DisplayNumber^0,f,c
  4632  006F2C  0E01               	movlw	1
  4633  006F2E  6E14               	movwf	(??_GLCD_DisplayNumber+1)^0,c
  4634  006F30  6A15               	clrf	(??_GLCD_DisplayNumber+2)^0,c
  4635  006F32  6A16               	clrf	(??_GLCD_DisplayNumber+3)^0,c
  4636  006F34  6A17               	clrf	(??_GLCD_DisplayNumber+4)^0,c
  4637  006F36  2A13               	incf	??_GLCD_DisplayNumber^0,f,c
  4638  006F38  EFA3  F037         	goto	u1240
  4639  006F3C                     u1245:
  4640  006F3C  90D8               	bcf	status,0,c
  4641  006F3E  3614               	rlcf	(??_GLCD_DisplayNumber+1)^0,f,c
  4642  006F40  3615               	rlcf	(??_GLCD_DisplayNumber+2)^0,f,c
  4643  006F42  3616               	rlcf	(??_GLCD_DisplayNumber+3)^0,f,c
  4644  006F44  3617               	rlcf	(??_GLCD_DisplayNumber+4)^0,f,c
  4645  006F46                     u1240:
  4646  006F46  2E13               	decfsz	??_GLCD_DisplayNumber^0,f,c
  4647  006F48  EF9E  F037         	goto	u1245
  4648  006F4C  500E               	movf	GLCD_DisplayNumber@v_number_u32^0,w,c
  4649  006F4E  1414               	andwf	(??_GLCD_DisplayNumber+1)^0,w,c
  4650  006F50  6E18               	movwf	(??_GLCD_DisplayNumber+5)^0,c
  4651  006F52  500F               	movf	(GLCD_DisplayNumber@v_number_u32+1)^0,w,c
  4652  006F54  1415               	andwf	(??_GLCD_DisplayNumber+2)^0,w,c
  4653  006F56  6E19               	movwf	(??_GLCD_DisplayNumber+6)^0,c
  4654  006F58  5010               	movf	(GLCD_DisplayNumber@v_number_u32+2)^0,w,c
  4655  006F5A  1416               	andwf	(??_GLCD_DisplayNumber+3)^0,w,c
  4656  006F5C  6E1A               	movwf	(??_GLCD_DisplayNumber+7)^0,c
  4657  006F5E  5011               	movf	(GLCD_DisplayNumber@v_number_u32+3)^0,w,c
  4658  006F60  1417               	andwf	(??_GLCD_DisplayNumber+4)^0,w,c
  4659  006F62  6E1B               	movwf	(??_GLCD_DisplayNumber+8)^0,c
  4660  006F64  5018               	movf	(??_GLCD_DisplayNumber+5)^0,w,c
  4661  006F66  1019               	iorwf	(??_GLCD_DisplayNumber+6)^0,w,c
  4662  006F68  101A               	iorwf	(??_GLCD_DisplayNumber+7)^0,w,c
  4663  006F6A  101B               	iorwf	(??_GLCD_DisplayNumber+8)^0,w,c
  4664  006F6C  A4D8               	btfss	status,2,c
  4665  006F6E  EFBB  F037         	goto	u1251
  4666  006F72  EFBE  F037         	goto	u1250
  4667  006F76                     u1251:
  4668  006F76  0E01               	movlw	1
  4669  006F78  EFBF  F037         	goto	u1260
  4670  006F7C                     u1250:
  4671  006F7C  0E00               	movlw	0
  4672  006F7E                     u1260:
  4673  006F7E  6E29               	movwf	GLCD_DisplayNumber@i^0,c
  4674  006F80                     
  4675                           ;glcd.c: 400:           GLCD_DisplayChar(((i)+0x30));
  4676  006F80  5029               	movf	GLCD_DisplayNumber@i^0,w,c
  4677  006F82  0F30               	addlw	48
  4678  006F84  ECEA  F035         	call	_GLCD_DisplayChar
  4679  006F88                     
  4680                           ;glcd.c: 401:           v_numOfDigitsToDisplay_u8--;
  4681  006F88  0612               	decf	GLCD_DisplayNumber@v_numOfDigitsToDisplay_u8^0,f,c
  4682  006F8A                     l2136:
  4683                           
  4684                           ;glcd.c: 395:         while(v_numOfDigitsToDisplay_u8!=0)
  4685  006F8A  5012               	movf	GLCD_DisplayNumber@v_numOfDigitsToDisplay_u8^0,w,c
  4686  006F8C  A4D8               	btfss	status,2,c
  4687  006F8E  EFCB  F037         	goto	u1271
  4688  006F92  EFCD  F037         	goto	u1270
  4689  006F96                     u1271:
  4690  006F96  EF92  F037         	goto	l2130
  4691  006F9A                     u1270:
  4692  006F9A  EFB6  F038         	goto	l257
  4693  006F9E                     l2138:
  4694  006F9E  500E               	movf	GLCD_DisplayNumber@v_number_u32^0,w,c
  4695  006FA0  100F               	iorwf	(GLCD_DisplayNumber@v_number_u32+1)^0,w,c
  4696  006FA2  1010               	iorwf	(GLCD_DisplayNumber@v_number_u32+2)^0,w,c
  4697  006FA4  1011               	iorwf	(GLCD_DisplayNumber@v_number_u32+3)^0,w,c
  4698  006FA6  A4D8               	btfss	status,2,c
  4699  006FA8  EFD8  F037         	goto	u1281
  4700  006FAC  EFDA  F037         	goto	u1280
  4701  006FB0                     u1281:
  4702  006FB0  EFF5  F037         	goto	l2150
  4703  006FB4                     u1280:
  4704  006FB4                     
  4705                           ;glcd.c: 405:     {;glcd.c: 407:         for(i=0;((i<v_numOfDigitsToDisplay_u8) && (i<10
      +                          u));i++)
  4706  006FB4  0E00               	movlw	0
  4707  006FB6  6E29               	movwf	GLCD_DisplayNumber@i^0,c
  4708  006FB8  EFE2  F037         	goto	l2146
  4709  006FBC                     l2142:
  4710                           
  4711                           ;glcd.c: 408:             GLCD_DisplayChar('0');
  4712  006FBC  0E30               	movlw	48
  4713  006FBE  ECEA  F035         	call	_GLCD_DisplayChar
  4714  006FC2  2A29               	incf	GLCD_DisplayNumber@i^0,f,c
  4715  006FC4                     l2146:
  4716  006FC4  5012               	movf	GLCD_DisplayNumber@v_numOfDigitsToDisplay_u8^0,w,c
  4717  006FC6  5C29               	subwf	GLCD_DisplayNumber@i^0,w,c
  4718  006FC8  B0D8               	btfsc	status,0,c
  4719  006FCA  EFE9  F037         	goto	u1291
  4720  006FCE  EFEB  F037         	goto	u1290
  4721  006FD2                     u1291:
  4722  006FD2  EFB6  F038         	goto	l257
  4723  006FD6                     u1290:
  4724  006FD6  0E09               	movlw	9
  4725  006FD8  6429               	cpfsgt	GLCD_DisplayNumber@i^0,c
  4726  006FDA  EFF1  F037         	goto	u1301
  4727  006FDE  EFF3  F037         	goto	u1300
  4728  006FE2                     u1301:
  4729  006FE2  EFDE  F037         	goto	l2142
  4730  006FE6                     u1300:
  4731  006FE6  EFB6  F038         	goto	l257
  4732  006FEA                     l2150:
  4733                           
  4734                           ;glcd.c: 411:     {;glcd.c: 412:         for(i=0;i<v_numOfDigitsToDisplay_u8;i++)
  4735  006FEA  0E00               	movlw	0
  4736  006FEC  6E29               	movwf	GLCD_DisplayNumber@i^0,c
  4737  006FEE  EF52  F038         	goto	l2168
  4738  006FF2                     l2152:
  4739                           
  4740                           ;glcd.c: 413:         {;glcd.c: 416:             if(v_number_u32!=0)
  4741  006FF2  500E               	movf	GLCD_DisplayNumber@v_number_u32^0,w,c
  4742  006FF4  100F               	iorwf	(GLCD_DisplayNumber@v_number_u32+1)^0,w,c
  4743  006FF6  1010               	iorwf	(GLCD_DisplayNumber@v_number_u32+2)^0,w,c
  4744  006FF8  1011               	iorwf	(GLCD_DisplayNumber@v_number_u32+3)^0,w,c
  4745  006FFA  B4D8               	btfsc	status,2,c
  4746  006FFC  EF02  F038         	goto	u1311
  4747  007000  EF04  F038         	goto	u1310
  4748  007004                     u1311:
  4749  007004  EF37  F038         	goto	l2158
  4750  007008                     u1310:
  4751  007008                     
  4752                           ;glcd.c: 417:             {;glcd.c: 424:                 a[i]=(uint32_t)(v_number_u32 - 
      +                          (v_numericSystem_u8 * (uint32_t)(v_number_u32/v_numericSystem_u8)));
  4753  007008  0E1C               	movlw	low GLCD_DisplayNumber@a
  4754  00700A  2429               	addwf	GLCD_DisplayNumber@i^0,w,c
  4755  00700C  6ED9               	movwf	fsr2l,c
  4756  00700E  6ADA               	clrf	fsr2h,c
  4757  007010  0E00               	movlw	high GLCD_DisplayNumber@a
  4758  007012  22DA               	addwfc	fsr2h,f,c
  4759  007014  C00E  F001         	movff	GLCD_DisplayNumber@v_number_u32,___lldiv@dividend
  4760  007018  C00F  F002         	movff	GLCD_DisplayNumber@v_number_u32+1,___lldiv@dividend+1
  4761  00701C  C010  F003         	movff	GLCD_DisplayNumber@v_number_u32+2,___lldiv@dividend+2
  4762  007020  C011  F004         	movff	GLCD_DisplayNumber@v_number_u32+3,___lldiv@dividend+3
  4763  007024  5028               	movf	GLCD_DisplayNumber@v_numericSystem_u8^0,w,c
  4764  007026  6E05               	movwf	___lldiv@divisor^0,c
  4765  007028  6A06               	clrf	(___lldiv@divisor+1)^0,c
  4766  00702A  6A07               	clrf	(___lldiv@divisor+2)^0,c
  4767  00702C  6A08               	clrf	(___lldiv@divisor+3)^0,c
  4768  00702E  ECDE  F034         	call	___lldiv	;wreg free
  4769  007032  5001               	movf	?___lldiv^0,w,c
  4770  007034  0228               	mulwf	GLCD_DisplayNumber@v_numericSystem_u8^0,c
  4771  007036  50F3               	movf	243,w,c
  4772  007038  5C0E               	subwf	GLCD_DisplayNumber@v_number_u32^0,w,c
  4773  00703A  6EDF               	movwf	indf2,c
  4774  00703C                     
  4775                           ;glcd.c: 425:                 v_number_u32=v_number_u32/v_numericSystem_u8;
  4776  00703C  C00E  F001         	movff	GLCD_DisplayNumber@v_number_u32,___lldiv@dividend
  4777  007040  C00F  F002         	movff	GLCD_DisplayNumber@v_number_u32+1,___lldiv@dividend+1
  4778  007044  C010  F003         	movff	GLCD_DisplayNumber@v_number_u32+2,___lldiv@dividend+2
  4779  007048  C011  F004         	movff	GLCD_DisplayNumber@v_number_u32+3,___lldiv@dividend+3
  4780  00704C  5028               	movf	GLCD_DisplayNumber@v_numericSystem_u8^0,w,c
  4781  00704E  6E05               	movwf	___lldiv@divisor^0,c
  4782  007050  6A06               	clrf	(___lldiv@divisor+1)^0,c
  4783  007052  6A07               	clrf	(___lldiv@divisor+2)^0,c
  4784  007054  6A08               	clrf	(___lldiv@divisor+3)^0,c
  4785  007056  ECDE  F034         	call	___lldiv	;wreg free
  4786  00705A  C001  F00E         	movff	?___lldiv,GLCD_DisplayNumber@v_number_u32
  4787  00705E  C002  F00F         	movff	?___lldiv+1,GLCD_DisplayNumber@v_number_u32+1
  4788  007062  C003  F010         	movff	?___lldiv+2,GLCD_DisplayNumber@v_number_u32+2
  4789  007066  C004  F011         	movff	?___lldiv+3,GLCD_DisplayNumber@v_number_u32+3
  4790                           
  4791                           ;glcd.c: 426:             }
  4792  00706A  EF51  F038         	goto	l2166
  4793  00706E                     l2158:
  4794  00706E  2812               	incf	GLCD_DisplayNumber@v_numOfDigitsToDisplay_u8^0,w,c
  4795  007070  B4D8               	btfsc	status,2,c
  4796  007072  EF3D  F038         	goto	u1321
  4797  007076  EF3F  F038         	goto	u1320
  4798  00707A                     u1321:
  4799  00707A  EFAE  F038         	goto	l2180
  4800  00707E                     u1320:
  4801  00707E  0E0A               	movlw	10
  4802  007080  6412               	cpfsgt	GLCD_DisplayNumber@v_numOfDigitsToDisplay_u8^0,c
  4803  007082  EF45  F038         	goto	u1331
  4804  007086  EF47  F038         	goto	u1330
  4805  00708A                     u1331:
  4806  00708A  EF49  F038         	goto	l2164
  4807  00708E                     u1330:
  4808  00708E  EFAE  F038         	goto	l2180
  4809  007092                     l2164:
  4810                           
  4811                           ;glcd.c: 435:             {;glcd.c: 439:                 a[i]=0;
  4812  007092  0E1C               	movlw	low GLCD_DisplayNumber@a
  4813  007094  2429               	addwf	GLCD_DisplayNumber@i^0,w,c
  4814  007096  6ED9               	movwf	fsr2l,c
  4815  007098  6ADA               	clrf	fsr2h,c
  4816  00709A  0E00               	movlw	high GLCD_DisplayNumber@a
  4817  00709C  22DA               	addwfc	fsr2h,f,c
  4818  00709E  0E00               	movlw	0
  4819  0070A0  6EDF               	movwf	indf2,c
  4820  0070A2                     l2166:
  4821                           
  4822                           ;glcd.c: 441:         }
  4823  0070A2  2A29               	incf	GLCD_DisplayNumber@i^0,f,c
  4824  0070A4                     l2168:
  4825  0070A4  5012               	movf	GLCD_DisplayNumber@v_numOfDigitsToDisplay_u8^0,w,c
  4826  0070A6  5C29               	subwf	GLCD_DisplayNumber@i^0,w,c
  4827  0070A8  A0D8               	btfss	status,0,c
  4828  0070AA  EF59  F038         	goto	u1341
  4829  0070AE  EF5B  F038         	goto	u1340
  4830  0070B2                     u1341:
  4831  0070B2  EFF9  F037         	goto	l2152
  4832  0070B6                     u1340:
  4833  0070B6  EFAE  F038         	goto	l2180
  4834  0070BA                     l2170:
  4835                           
  4836                           ;glcd.c: 444:         {;glcd.c: 446:           GLCD_DisplayChar((((a[i-1])>0x09) ? ((a[i
      +                          -1]) + 0x37): ((a[i-1]) + 0x30)));
  4837  0070BA  0EFF               	movlw	255
  4838  0070BC  6E13               	movwf	??_GLCD_DisplayNumber^0,c
  4839  0070BE  0EFF               	movlw	255
  4840  0070C0  6E14               	movwf	(??_GLCD_DisplayNumber+1)^0,c
  4841  0070C2  5029               	movf	GLCD_DisplayNumber@i^0,w,c
  4842  0070C4  6E15               	movwf	(??_GLCD_DisplayNumber+2)^0,c
  4843  0070C6  6A16               	clrf	(??_GLCD_DisplayNumber+3)^0,c
  4844  0070C8  5013               	movf	??_GLCD_DisplayNumber^0,w,c
  4845  0070CA  2615               	addwf	(??_GLCD_DisplayNumber+2)^0,f,c
  4846  0070CC  5014               	movf	(??_GLCD_DisplayNumber+1)^0,w,c
  4847  0070CE  2216               	addwfc	(??_GLCD_DisplayNumber+3)^0,f,c
  4848  0070D0  0E1C               	movlw	low GLCD_DisplayNumber@a
  4849  0070D2  2415               	addwf	(??_GLCD_DisplayNumber+2)^0,w,c
  4850  0070D4  6ED9               	movwf	fsr2l,c
  4851  0070D6  0E00               	movlw	high GLCD_DisplayNumber@a
  4852  0070D8  2016               	addwfc	(??_GLCD_DisplayNumber+3)^0,w,c
  4853  0070DA  6EDA               	movwf	fsr2h,c
  4854  0070DC  0E0A               	movlw	10
  4855  0070DE  60DF               	cpfslt	indf2,c
  4856  0070E0  EF74  F038         	goto	u1351
  4857  0070E4  EF76  F038         	goto	u1350
  4858  0070E8                     u1351:
  4859  0070E8  EF91  F038         	goto	l2174
  4860  0070EC                     u1350:
  4861  0070EC  0EFF               	movlw	255
  4862  0070EE  6E13               	movwf	??_GLCD_DisplayNumber^0,c
  4863  0070F0  0EFF               	movlw	255
  4864  0070F2  6E14               	movwf	(??_GLCD_DisplayNumber+1)^0,c
  4865  0070F4  5029               	movf	GLCD_DisplayNumber@i^0,w,c
  4866  0070F6  6E15               	movwf	(??_GLCD_DisplayNumber+2)^0,c
  4867  0070F8  6A16               	clrf	(??_GLCD_DisplayNumber+3)^0,c
  4868  0070FA  5013               	movf	??_GLCD_DisplayNumber^0,w,c
  4869  0070FC  2615               	addwf	(??_GLCD_DisplayNumber+2)^0,f,c
  4870  0070FE  5014               	movf	(??_GLCD_DisplayNumber+1)^0,w,c
  4871  007100  2216               	addwfc	(??_GLCD_DisplayNumber+3)^0,f,c
  4872  007102  0E1C               	movlw	low GLCD_DisplayNumber@a
  4873  007104  2415               	addwf	(??_GLCD_DisplayNumber+2)^0,w,c
  4874  007106  6ED9               	movwf	fsr2l,c
  4875  007108  0E00               	movlw	high GLCD_DisplayNumber@a
  4876  00710A  2016               	addwfc	(??_GLCD_DisplayNumber+3)^0,w,c
  4877  00710C  6EDA               	movwf	fsr2h,c
  4878  00710E  50DF               	movf	indf2,w,c
  4879  007110  6E17               	movwf	(??_GLCD_DisplayNumber+4)^0,c
  4880  007112  0E30               	movlw	48
  4881  007114  2417               	addwf	(??_GLCD_DisplayNumber+4)^0,w,c
  4882  007116  6E26               	movwf	_GLCD_DisplayNumber$528^0,c
  4883  007118  6A27               	clrf	(_GLCD_DisplayNumber$528+1)^0,c
  4884  00711A  0E00               	movlw	0
  4885  00711C  2227               	addwfc	(_GLCD_DisplayNumber$528+1)^0,f,c
  4886  00711E  EFAA  F038         	goto	l2176
  4887  007122                     l2174:
  4888  007122  0EFF               	movlw	255
  4889  007124  6E13               	movwf	??_GLCD_DisplayNumber^0,c
  4890  007126  0EFF               	movlw	255
  4891  007128  6E14               	movwf	(??_GLCD_DisplayNumber+1)^0,c
  4892  00712A  5029               	movf	GLCD_DisplayNumber@i^0,w,c
  4893  00712C  6E15               	movwf	(??_GLCD_DisplayNumber+2)^0,c
  4894  00712E  6A16               	clrf	(??_GLCD_DisplayNumber+3)^0,c
  4895  007130  5013               	movf	??_GLCD_DisplayNumber^0,w,c
  4896  007132  2615               	addwf	(??_GLCD_DisplayNumber+2)^0,f,c
  4897  007134  5014               	movf	(??_GLCD_DisplayNumber+1)^0,w,c
  4898  007136  2216               	addwfc	(??_GLCD_DisplayNumber+3)^0,f,c
  4899  007138  0E1C               	movlw	low GLCD_DisplayNumber@a
  4900  00713A  2415               	addwf	(??_GLCD_DisplayNumber+2)^0,w,c
  4901  00713C  6ED9               	movwf	fsr2l,c
  4902  00713E  0E00               	movlw	high GLCD_DisplayNumber@a
  4903  007140  2016               	addwfc	(??_GLCD_DisplayNumber+3)^0,w,c
  4904  007142  6EDA               	movwf	fsr2h,c
  4905  007144  50DF               	movf	indf2,w,c
  4906  007146  6E17               	movwf	(??_GLCD_DisplayNumber+4)^0,c
  4907  007148  0E37               	movlw	55
  4908  00714A  2417               	addwf	(??_GLCD_DisplayNumber+4)^0,w,c
  4909  00714C  6E26               	movwf	_GLCD_DisplayNumber$528^0,c
  4910  00714E  6A27               	clrf	(_GLCD_DisplayNumber$528+1)^0,c
  4911  007150  0E00               	movlw	0
  4912  007152  2227               	addwfc	(_GLCD_DisplayNumber$528+1)^0,f,c
  4913  007154                     l2176:
  4914  007154  5026               	movf	_GLCD_DisplayNumber$528^0,w,c
  4915  007156  ECEA  F035         	call	_GLCD_DisplayChar
  4916  00715A                     
  4917                           ;glcd.c: 447:           i--;
  4918  00715A  0629               	decf	GLCD_DisplayNumber@i^0,f,c
  4919  00715C                     l2180:
  4920                           
  4921                           ;glcd.c: 443:          while(i!=0)
  4922  00715C  5029               	movf	GLCD_DisplayNumber@i^0,w,c
  4923  00715E  A4D8               	btfss	status,2,c
  4924  007160  EFB4  F038         	goto	u1361
  4925  007164  EFB6  F038         	goto	u1360
  4926  007168                     u1361:
  4927  007168  EF5D  F038         	goto	l2170
  4928  00716C                     u1360:
  4929  00716C                     l257:
  4930  00716C  0012               	return		;funcret
  4931  00716E                     __end_of_GLCD_DisplayNumber:
  4932                           	callstack 0
  4933                           
  4934 ;; *************** function ___lldiv *****************
  4935 ;; Defined at:
  4936 ;;		line 7 in file "C:\Program Files\Microchip\xc8\v2.31\pic\sources\c99\common\__lldiv.c"
  4937 ;; Parameters:    Size  Location     Type
  4938 ;;  dividend        4    0[COMRAM] unsigned long 
  4939 ;;  divisor         4    4[COMRAM] unsigned long 
  4940 ;; Auto vars:     Size  Location     Type
  4941 ;;  quotient        4    8[COMRAM] unsigned long 
  4942 ;;  counter         1   12[COMRAM] unsigned char 
  4943 ;; Return value:  Size  Location     Type
  4944 ;;                  4    0[COMRAM] unsigned long 
  4945 ;; Registers used:
  4946 ;;		wreg, status,2, status,0
  4947 ;; Tracked objects:
  4948 ;;		On entry : 0/0
  4949 ;;		On exit  : 0/0
  4950 ;;		Unchanged: 0/0
  4951 ;; Data sizes:     COMRAM   BANK0   BANK1   BANK2   BANK3   BANK4   BANK5   BANK6   BANK7
  4952 ;;      Params:         8       0       0       0       0       0       0       0       0
  4953 ;;      Locals:         5       0       0       0       0       0       0       0       0
  4954 ;;      Temps:          0       0       0       0       0       0       0       0       0
  4955 ;;      Totals:        13       0       0       0       0       0       0       0       0
  4956 ;;Total ram usage:       13 bytes
  4957 ;; Hardware stack levels used:    1
  4958 ;; This function calls:
  4959 ;;		Nothing
  4960 ;; This function is called by:
  4961 ;;		_GLCD_DisplayNumber
  4962 ;; This function uses a non-reentrant model
  4963 ;;
  4964                           
  4965                           	psect	text10
  4966  0069BC                     __ptext10:
  4967                           	callstack 0
  4968  0069BC                     ___lldiv:
  4969                           	callstack 27
  4970  0069BC  0E00               	movlw	0
  4971  0069BE  6E09               	movwf	___lldiv@quotient^0,c
  4972  0069C0  0E00               	movlw	0
  4973  0069C2  6E0A               	movwf	(___lldiv@quotient+1)^0,c
  4974  0069C4  0E00               	movlw	0
  4975  0069C6  6E0B               	movwf	(___lldiv@quotient+2)^0,c
  4976  0069C8  0E00               	movlw	0
  4977  0069CA  6E0C               	movwf	(___lldiv@quotient+3)^0,c
  4978  0069CC  5005               	movf	___lldiv@divisor^0,w,c
  4979  0069CE  1006               	iorwf	(___lldiv@divisor+1)^0,w,c
  4980  0069D0  1007               	iorwf	(___lldiv@divisor+2)^0,w,c
  4981  0069D2  1008               	iorwf	(___lldiv@divisor+3)^0,w,c
  4982  0069D4  B4D8               	btfsc	status,2,c
  4983  0069D6  EFEF  F034         	goto	u1191
  4984  0069DA  EFF1  F034         	goto	u1190
  4985  0069DE                     u1191:
  4986  0069DE  EF27  F035         	goto	l422
  4987  0069E2                     u1190:
  4988  0069E2  0E01               	movlw	1
  4989  0069E4  6E0D               	movwf	___lldiv@counter^0,c
  4990  0069E6  EFFB  F034         	goto	l2102
  4991  0069EA                     l2100:
  4992  0069EA  90D8               	bcf	status,0,c
  4993  0069EC  3605               	rlcf	___lldiv@divisor^0,f,c
  4994  0069EE  3606               	rlcf	(___lldiv@divisor+1)^0,f,c
  4995  0069F0  3607               	rlcf	(___lldiv@divisor+2)^0,f,c
  4996  0069F2  3608               	rlcf	(___lldiv@divisor+3)^0,f,c
  4997  0069F4  2A0D               	incf	___lldiv@counter^0,f,c
  4998  0069F6                     l2102:
  4999  0069F6  AE08               	btfss	(___lldiv@divisor+3)^0,7,c
  5000  0069F8  EF00  F035         	goto	u1201
  5001  0069FC  EF02  F035         	goto	u1200
  5002  006A00                     u1201:
  5003  006A00  EFF5  F034         	goto	l2100
  5004  006A04                     u1200:
  5005  006A04                     l2104:
  5006  006A04  90D8               	bcf	status,0,c
  5007  006A06  3609               	rlcf	___lldiv@quotient^0,f,c
  5008  006A08  360A               	rlcf	(___lldiv@quotient+1)^0,f,c
  5009  006A0A  360B               	rlcf	(___lldiv@quotient+2)^0,f,c
  5010  006A0C  360C               	rlcf	(___lldiv@quotient+3)^0,f,c
  5011  006A0E  5005               	movf	___lldiv@divisor^0,w,c
  5012  006A10  5C01               	subwf	___lldiv@dividend^0,w,c
  5013  006A12  5006               	movf	(___lldiv@divisor+1)^0,w,c
  5014  006A14  5802               	subwfb	(___lldiv@dividend+1)^0,w,c
  5015  006A16  5007               	movf	(___lldiv@divisor+2)^0,w,c
  5016  006A18  5803               	subwfb	(___lldiv@dividend+2)^0,w,c
  5017  006A1A  5008               	movf	(___lldiv@divisor+3)^0,w,c
  5018  006A1C  5804               	subwfb	(___lldiv@dividend+3)^0,w,c
  5019  006A1E  A0D8               	btfss	status,0,c
  5020  006A20  EF14  F035         	goto	u1211
  5021  006A24  EF16  F035         	goto	u1210
  5022  006A28                     u1211:
  5023  006A28  EF1F  F035         	goto	l2112
  5024  006A2C                     u1210:
  5025  006A2C  5005               	movf	___lldiv@divisor^0,w,c
  5026  006A2E  5E01               	subwf	___lldiv@dividend^0,f,c
  5027  006A30  5006               	movf	(___lldiv@divisor+1)^0,w,c
  5028  006A32  5A02               	subwfb	(___lldiv@dividend+1)^0,f,c
  5029  006A34  5007               	movf	(___lldiv@divisor+2)^0,w,c
  5030  006A36  5A03               	subwfb	(___lldiv@dividend+2)^0,f,c
  5031  006A38  5008               	movf	(___lldiv@divisor+3)^0,w,c
  5032  006A3A  5A04               	subwfb	(___lldiv@dividend+3)^0,f,c
  5033  006A3C  8009               	bsf	___lldiv@quotient^0,0,c
  5034  006A3E                     l2112:
  5035  006A3E  90D8               	bcf	status,0,c
  5036  006A40  3208               	rrcf	(___lldiv@divisor+3)^0,f,c
  5037  006A42  3207               	rrcf	(___lldiv@divisor+2)^0,f,c
  5038  006A44  3206               	rrcf	(___lldiv@divisor+1)^0,f,c
  5039  006A46  3205               	rrcf	___lldiv@divisor^0,f,c
  5040  006A48  2E0D               	decfsz	___lldiv@counter^0,f,c
  5041  006A4A  EF02  F035         	goto	l2104
  5042  006A4E                     l422:
  5043  006A4E  C009  F001         	movff	___lldiv@quotient,?___lldiv
  5044  006A52  C00A  F002         	movff	___lldiv@quotient+1,?___lldiv+1
  5045  006A56  C00B  F003         	movff	___lldiv@quotient+2,?___lldiv+2
  5046  006A5A  C00C  F004         	movff	___lldiv@quotient+3,?___lldiv+3
  5047  006A5E  0012               	return		;funcret
  5048  006A60                     __end_of___lldiv:
  5049                           	callstack 0
  5050                           
  5051 ;; *************** function _GLCD_DisplayChar *****************
  5052 ;; Defined at:
  5053 ;;		line 215 in file "glcd.c"
  5054 ;; Parameters:    Size  Location     Type
  5055 ;;  ch              1    wreg     unsigned char 
  5056 ;; Auto vars:     Size  Location     Type
  5057 ;;  ch              1    8[COMRAM] unsigned char 
  5058 ;;  i               1    7[COMRAM] unsigned char 
  5059 ;;  dat             1    6[COMRAM] unsigned char 
  5060 ;; Return value:  Size  Location     Type
  5061 ;;                  1    wreg      void 
  5062 ;; Registers used:
  5063 ;;		wreg, status,2, status,0, tblptrl, tblptrh, tblptru, prodl, prodh, cstack
  5064 ;; Tracked objects:
  5065 ;;		On entry : 0/0
  5066 ;;		On exit  : 0/0
  5067 ;;		Unchanged: 0/0
  5068 ;; Data sizes:     COMRAM   BANK0   BANK1   BANK2   BANK3   BANK4   BANK5   BANK6   BANK7
  5069 ;;      Params:         0       0       0       0       0       0       0       0       0
  5070 ;;      Locals:         3       0       0       0       0       0       0       0       0
  5071 ;;      Temps:          2       0       0       0       0       0       0       0       0
  5072 ;;      Totals:         5       0       0       0       0       0       0       0       0
  5073 ;;Total ram usage:        5 bytes
  5074 ;; Hardware stack levels used:    1
  5075 ;; Hardware stack levels required when called:    5
  5076 ;; This function calls:
  5077 ;;		_GLCD_GoToNextLine
  5078 ;;		_GLCD_GoToPage
  5079 ;;		_glcd_DataWrite
  5080 ;; This function is called by:
  5081 ;;		_GLCD_DisplayString
  5082 ;;		_GLCD_DisplayNumber
  5083 ;;		_GLCD_Printf
  5084 ;; This function uses a non-reentrant model
  5085 ;;
  5086                           
  5087                           	psect	text11
  5088  006BD4                     __ptext11:
  5089                           	callstack 0
  5090  006BD4                     _GLCD_DisplayChar:
  5091                           	callstack 22
  5092                           
  5093                           ;incstack = 0
  5094                           ;GLCD_DisplayChar@ch stored from wreg
  5095  006BD4  6E09               	movwf	GLCD_DisplayChar@ch^0,c
  5096  006BD6                     
  5097                           ;glcd.c: 215: void GLCD_DisplayChar(uint8_t ch);glcd.c: 216: {;glcd.c: 217:  uint8_t dat
      +                          ,i=0;
  5098  006BD6  0E00               	movlw	0
  5099  006BD8  6E08               	movwf	GLCD_DisplayChar@i^0,c
  5100  006BDA                     
  5101                           ;glcd.c: 220:  if(((GLCD.PageNum == 0x01) && ((GLCD.CursorPos+5)>=128)) || (ch=='\n'))
  5102  006BDA  0458               	decf	_GLCD^0,w,c
  5103  006BDC  A4D8               	btfss	status,2,c
  5104  006BDE  EFF3  F035         	goto	u1121
  5105  006BE2  EFF5  F035         	goto	u1120
  5106  006BE6                     u1121:
  5107  006BE6  EF0A  F036         	goto	l2066
  5108  006BEA                     u1120:
  5109  006BEA  505A               	movf	(_GLCD+2)^0,w,c
  5110  006BEC  6E05               	movwf	??_GLCD_DisplayChar^0,c
  5111  006BEE  6A06               	clrf	(??_GLCD_DisplayChar+1)^0,c
  5112  006BF0  0E05               	movlw	5
  5113  006BF2  2605               	addwf	??_GLCD_DisplayChar^0,f,c
  5114  006BF4  0E00               	movlw	0
  5115  006BF6  2206               	addwfc	(??_GLCD_DisplayChar+1)^0,f,c
  5116  006BF8  BE06               	btfsc	(??_GLCD_DisplayChar+1)^0,7,c
  5117  006BFA  EF0A  F036         	goto	u1130
  5118  006BFE  5006               	movf	(??_GLCD_DisplayChar+1)^0,w,c
  5119  006C00  E107               	bnz	u1131
  5120  006C02  0E80               	movlw	128
  5121  006C04  5C05               	subwf	??_GLCD_DisplayChar^0,w,c
  5122  006C06  B0D8               	btfsc	status,0,c
  5123  006C08  EF08  F036         	goto	u1131
  5124  006C0C  EF0A  F036         	goto	u1130
  5125  006C10                     u1131:
  5126  006C10  EF13  F036         	goto	l2068
  5127  006C14                     u1130:
  5128  006C14                     l2066:
  5129  006C14  0E0A               	movlw	10
  5130  006C16  1809               	xorwf	GLCD_DisplayChar@ch^0,w,c
  5131  006C18  A4D8               	btfss	status,2,c
  5132  006C1A  EF11  F036         	goto	u1141
  5133  006C1E  EF13  F036         	goto	u1140
  5134  006C22                     u1141:
  5135  006C22  EF15  F036         	goto	l2070
  5136  006C26                     u1140:
  5137  006C26                     l2068:
  5138                           
  5139                           ;glcd.c: 221:  {;glcd.c: 224:   GLCD_GoToNextLine();
  5140  006C26  EC80  F032         	call	_GLCD_GoToNextLine	;wreg free
  5141  006C2A                     l2070:
  5142                           
  5143                           ;glcd.c: 226:  if(ch!='\n')
  5144  006C2A  0E0A               	movlw	10
  5145  006C2C  1809               	xorwf	GLCD_DisplayChar@ch^0,w,c
  5146  006C2E  B4D8               	btfsc	status,2,c
  5147  006C30  EF1C  F036         	goto	u1151
  5148  006C34  EF1E  F036         	goto	u1150
  5149  006C38                     u1151:
  5150  006C38  EF5C  F036         	goto	l220
  5151  006C3C                     u1150:
  5152  006C3C                     
  5153                           ;glcd.c: 227:  {;glcd.c: 228:   ch = ch-0x20;
  5154  006C3C  5009               	movf	GLCD_DisplayChar@ch^0,w,c
  5155  006C3E  0FE0               	addlw	224
  5156  006C40  6E09               	movwf	GLCD_DisplayChar@ch^0,c
  5157  006C42                     l2074:
  5158                           
  5159                           ;glcd.c: 231:   {;glcd.c: 232:    if((GLCD.PageNum == 0x00) && (GLCD.CursorPos==0x80))
  5160  006C42  5058               	movf	_GLCD^0,w,c
  5161  006C44  A4D8               	btfss	status,2,c
  5162  006C46  EF27  F036         	goto	u1161
  5163  006C4A  EF29  F036         	goto	u1160
  5164  006C4E                     u1161:
  5165  006C4E  EF35  F036         	goto	l2080
  5166  006C52                     u1160:
  5167  006C52  0E80               	movlw	128
  5168  006C54  185A               	xorwf	(_GLCD+2)^0,w,c
  5169  006C56  A4D8               	btfss	status,2,c
  5170  006C58  EF30  F036         	goto	u1171
  5171  006C5C  EF32  F036         	goto	u1170
  5172  006C60                     u1171:
  5173  006C60  EF35  F036         	goto	l2080
  5174  006C64                     u1170:
  5175  006C64                     
  5176                           ;glcd.c: 233:    {;glcd.c: 236:     GLCD_GoToPage(1);
  5177  006C64  0E01               	movlw	1
  5178  006C66  EC01  F033         	call	_GLCD_GoToPage
  5179  006C6A                     l2080:
  5180                           
  5181                           ;glcd.c: 239:    dat= A_GlcdFontTable_U8[ch][i];
  5182  006C6A  5009               	movf	GLCD_DisplayChar@ch^0,w,c
  5183  006C6C  0D05               	mullw	5
  5184  006C6E  0E7F               	movlw	low _A_GlcdFontTable_U8
  5185  006C70  6E05               	movwf	??_GLCD_DisplayChar^0,c
  5186  006C72  0E7D               	movlw	high _A_GlcdFontTable_U8
  5187  006C74  6E06               	movwf	(??_GLCD_DisplayChar+1)^0,c
  5188  006C76  50F3               	movf	243,w,c
  5189  006C78  2605               	addwf	??_GLCD_DisplayChar^0,f,c
  5190  006C7A  50F4               	movf	244,w,c
  5191  006C7C  2206               	addwfc	(??_GLCD_DisplayChar+1)^0,f,c
  5192  006C7E  5008               	movf	GLCD_DisplayChar@i^0,w,c
  5193  006C80  2605               	addwf	??_GLCD_DisplayChar^0,f,c
  5194  006C82  0E00               	movlw	0
  5195  006C84  2206               	addwfc	(??_GLCD_DisplayChar+1)^0,f,c
  5196  006C86  C005  FFF6         	movff	??_GLCD_DisplayChar,tblptrl
  5197  006C8A  C006  FFF7         	movff	??_GLCD_DisplayChar+1,tblptrh
  5198  006C8E                     	if	0	;tblptru may be non-zero
  5199  006C8E                     	endif
  5200  006C8E                     	if	0	;tblptru may be non-zero
  5201  006C8E                     	endif
  5202  006C8E  0008               	tblrd		*
  5203  006C90  CFF5 F007          	movff	tablat,GLCD_DisplayChar@dat
  5204  006C94                     
  5205                           ;glcd.c: 242:    glcd_DataWrite(dat);
  5206  006C94  5007               	movf	GLCD_DisplayChar@dat^0,w,c
  5207  006C96  EC65  F032         	call	_glcd_DataWrite
  5208  006C9A                     
  5209                           ;glcd.c: 243:    GLCD.CursorPos++;
  5210  006C9A  2A5A               	incf	(_GLCD+2)^0,f,c
  5211  006C9C                     
  5212                           ;glcd.c: 245:    i++;
  5213  006C9C  2A08               	incf	GLCD_DisplayChar@i^0,f,c
  5214  006C9E                     
  5215                           ;glcd.c: 247:    if(i==5)
  5216  006C9E  0E05               	movlw	5
  5217  006CA0  1808               	xorwf	GLCD_DisplayChar@i^0,w,c
  5218  006CA2  A4D8               	btfss	status,2,c
  5219  006CA4  EF56  F036         	goto	u1181
  5220  006CA8  EF58  F036         	goto	u1180
  5221  006CAC                     u1181:
  5222  006CAC  EF21  F036         	goto	l2074
  5223  006CB0                     u1180:
  5224  006CB0                     
  5225                           ;glcd.c: 248:    {;glcd.c: 249:     glcd_DataWrite(0x00);
  5226  006CB0  0E00               	movlw	0
  5227  006CB2  EC65  F032         	call	_glcd_DataWrite
  5228  006CB6                     
  5229                           ;glcd.c: 250:     GLCD.CursorPos++;
  5230  006CB6  2A5A               	incf	(_GLCD+2)^0,f,c
  5231  006CB8                     l220:
  5232  006CB8  0012               	return		;funcret
  5233  006CBA                     __end_of_GLCD_DisplayChar:
  5234                           	callstack 0
  5235                           
  5236 ;; *************** function _GLCD_GoToNextLine *****************
  5237 ;; Defined at:
  5238 ;;		line 772 in file "glcd.c"
  5239 ;; Parameters:    Size  Location     Type
  5240 ;;		None
  5241 ;; Auto vars:     Size  Location     Type
  5242 ;;		None
  5243 ;; Return value:  Size  Location     Type
  5244 ;;                  1    wreg      void 
  5245 ;; Registers used:
  5246 ;;		wreg, status,2, status,0, cstack
  5247 ;; Tracked objects:
  5248 ;;		On entry : 0/0
  5249 ;;		On exit  : 0/0
  5250 ;;		Unchanged: 0/0
  5251 ;; Data sizes:     COMRAM   BANK0   BANK1   BANK2   BANK3   BANK4   BANK5   BANK6   BANK7
  5252 ;;      Params:         0       0       0       0       0       0       0       0       0
  5253 ;;      Locals:         0       0       0       0       0       0       0       0       0
  5254 ;;      Temps:          0       0       0       0       0       0       0       0       0
  5255 ;;      Totals:         0       0       0       0       0       0       0       0       0
  5256 ;;Total ram usage:        0 bytes
  5257 ;; Hardware stack levels used:    1
  5258 ;; Hardware stack levels required when called:    4
  5259 ;; This function calls:
  5260 ;;		_GLCD_GoToPage
  5261 ;; This function is called by:
  5262 ;;		_GLCD_DisplayChar
  5263 ;; This function uses a non-reentrant model
  5264 ;;
  5265                           
  5266                           	psect	text12
  5267  006500                     __ptext12:
  5268                           	callstack 0
  5269  006500                     _GLCD_GoToNextLine:
  5270                           	callstack 22
  5271  006500                     
  5272                           ;glcd.c: 776:  GLCD.LineNum++;
  5273  006500  2A59               	incf	(_GLCD+1)^0,f,c
  5274  006502                     
  5275                           ;glcd.c: 777:  if(GLCD.LineNum > 0xBF)
  5276  006502  0EBF               	movlw	191
  5277  006504  6459               	cpfsgt	(_GLCD+1)^0,c
  5278  006506  EF87  F032         	goto	u1111
  5279  00650A  EF89  F032         	goto	u1110
  5280  00650E                     u1111:
  5281  00650E  EF8B  F032         	goto	l2044
  5282  006512                     u1110:
  5283  006512                     
  5284                           ;glcd.c: 778:   GLCD.LineNum = 0xB8;
  5285  006512  0EB8               	movlw	184
  5286  006514  6E59               	movwf	(_GLCD+1)^0,c
  5287  006516                     l2044:
  5288                           
  5289                           ;glcd.c: 779:  GLCD_GoToPage(0);
  5290  006516  0E00               	movlw	0
  5291  006518  EC01  F033         	call	_GLCD_GoToPage
  5292  00651C  0012               	return		;funcret
  5293  00651E                     __end_of_GLCD_GoToNextLine:
  5294                           	callstack 0
  5295                           
  5296 ;; *************** function _column *****************
  5297 ;; Defined at:
  5298 ;;		line 297 in file "main.c"
  5299 ;; Parameters:    Size  Location     Type
  5300 ;;		None
  5301 ;; Auto vars:     Size  Location     Type
  5302 ;;		None
  5303 ;; Return value:  Size  Location     Type
  5304 ;;                  2    0[COMRAM] int 
  5305 ;; Registers used:
  5306 ;;		wreg, status,2
  5307 ;; Tracked objects:
  5308 ;;		On entry : 0/0
  5309 ;;		On exit  : 0/0
  5310 ;;		Unchanged: 0/0
  5311 ;; Data sizes:     COMRAM   BANK0   BANK1   BANK2   BANK3   BANK4   BANK5   BANK6   BANK7
  5312 ;;      Params:         2       0       0       0       0       0       0       0       0
  5313 ;;      Locals:         0       0       0       0       0       0       0       0       0
  5314 ;;      Temps:          0       0       0       0       0       0       0       0       0
  5315 ;;      Totals:         2       0       0       0       0       0       0       0       0
  5316 ;;Total ram usage:        2 bytes
  5317 ;; Hardware stack levels used:    1
  5318 ;; This function calls:
  5319 ;;		Nothing
  5320 ;; This function is called by:
  5321 ;;		_main
  5322 ;; This function uses a non-reentrant model
  5323 ;;
  5324                           
  5325                           	psect	text13
  5326  0067CC                     __ptext13:
  5327                           	callstack 0
  5328  0067CC                     _column:
  5329                           	callstack 30
  5330  0067CC                     
  5331                           ;main.c: 298:     if(PORTAbits.RA5==0){
  5332  0067CC  BA80               	btfsc	128,5,c	;volatile
  5333  0067CE  EFEB  F033         	goto	u1811
  5334  0067D2  EFED  F033         	goto	u1810
  5335  0067D6                     u1811:
  5336  0067D6  EFF3  F033         	goto	l155
  5337  0067DA                     u1810:
  5338  0067DA                     
  5339                           ;main.c: 299:         return 1;
  5340  0067DA  0E00               	movlw	0
  5341  0067DC  6E02               	movwf	(?_column+1)^0,c
  5342  0067DE  0E01               	movlw	1
  5343  0067E0  6E01               	movwf	?_column^0,c
  5344  0067E2  EF1E  F034         	goto	l156
  5345  0067E6                     l155:
  5346                           
  5347                           ;main.c: 301:         if(PORTEbits.RE0==0){
  5348  0067E6  B084               	btfsc	132,0,c	;volatile
  5349  0067E8  EFF8  F033         	goto	u1821
  5350  0067EC  EFFA  F033         	goto	u1820
  5351  0067F0                     u1821:
  5352  0067F0  EF00  F034         	goto	l158
  5353  0067F4                     u1820:
  5354  0067F4                     
  5355                           ;main.c: 302:             return 2;
  5356  0067F4  0E00               	movlw	0
  5357  0067F6  6E02               	movwf	(?_column+1)^0,c
  5358  0067F8  0E02               	movlw	2
  5359  0067FA  6E01               	movwf	?_column^0,c
  5360  0067FC  EF1E  F034         	goto	l156
  5361  006800                     l158:
  5362                           
  5363                           ;main.c: 304:             if(PORTEbits.RE1==0){
  5364  006800  B284               	btfsc	132,1,c	;volatile
  5365  006802  EF05  F034         	goto	u1831
  5366  006806  EF07  F034         	goto	u1830
  5367  00680A                     u1831:
  5368  00680A  EF0D  F034         	goto	l160
  5369  00680E                     u1830:
  5370  00680E                     
  5371                           ;main.c: 305:                 return 3;
  5372  00680E  0E00               	movlw	0
  5373  006810  6E02               	movwf	(?_column+1)^0,c
  5374  006812  0E03               	movlw	3
  5375  006814  6E01               	movwf	?_column^0,c
  5376  006816  EF1E  F034         	goto	l156
  5377  00681A                     l160:
  5378                           
  5379                           ;main.c: 307:                 if(PORTEbits.RE2==0){
  5380  00681A  B484               	btfsc	132,2,c	;volatile
  5381  00681C  EF12  F034         	goto	u1841
  5382  006820  EF14  F034         	goto	u1840
  5383  006824                     u1841:
  5384  006824  EF1A  F034         	goto	l2616
  5385  006828                     u1840:
  5386  006828                     
  5387                           ;main.c: 308:                     return 4;
  5388  006828  0E00               	movlw	0
  5389  00682A  6E02               	movwf	(?_column+1)^0,c
  5390  00682C  0E04               	movlw	4
  5391  00682E  6E01               	movwf	?_column^0,c
  5392  006830  EF1E  F034         	goto	l156
  5393  006834                     l2616:
  5394                           
  5395                           ;main.c: 310:                     return 0;
  5396  006834  0E00               	movlw	0
  5397  006836  6E02               	movwf	(?_column+1)^0,c
  5398  006838  0E00               	movlw	0
  5399  00683A  6E01               	movwf	?_column^0,c
  5400  00683C                     l156:
  5401  00683C  0012               	return		;funcret
  5402  00683E                     __end_of_column:
  5403                           	callstack 0
  5404                           
  5405 ;; *************** function ___wmul *****************
  5406 ;; Defined at:
  5407 ;;		line 15 in file "C:\Program Files\Microchip\xc8\v2.31\pic\sources\c99\common\Umul16.c"
  5408 ;; Parameters:    Size  Location     Type
  5409 ;;  multiplier      2    0[COMRAM] unsigned int 
  5410 ;;  multiplicand    2    2[COMRAM] unsigned int 
  5411 ;; Auto vars:     Size  Location     Type
  5412 ;;  product         2    4[COMRAM] unsigned int 
  5413 ;; Return value:  Size  Location     Type
  5414 ;;                  2    0[COMRAM] unsigned int 
  5415 ;; Registers used:
  5416 ;;		wreg, status,2, status,0, prodl, prodh
  5417 ;; Tracked objects:
  5418 ;;		On entry : 0/0
  5419 ;;		On exit  : 0/0
  5420 ;;		Unchanged: 0/0
  5421 ;; Data sizes:     COMRAM   BANK0   BANK1   BANK2   BANK3   BANK4   BANK5   BANK6   BANK7
  5422 ;;      Params:         4       0       0       0       0       0       0       0       0
  5423 ;;      Locals:         2       0       0       0       0       0       0       0       0
  5424 ;;      Temps:          0       0       0       0       0       0       0       0       0
  5425 ;;      Totals:         6       0       0       0       0       0       0       0       0
  5426 ;;Total ram usage:        6 bytes
  5427 ;; Hardware stack levels used:    1
  5428 ;; This function calls:
  5429 ;;		Nothing
  5430 ;; This function is called by:
  5431 ;;		_main
  5432 ;; This function uses a non-reentrant model
  5433 ;;
  5434                           
  5435                           	psect	text14
  5436  006582                     __ptext14:
  5437                           	callstack 0
  5438  006582                     ___wmul:
  5439                           	callstack 30
  5440  006582  5001               	movf	___wmul@multiplier^0,w,c
  5441  006584  0203               	mulwf	___wmul@multiplicand^0,c
  5442  006586  CFF3 F005          	movff	prodl,___wmul@product
  5443  00658A  CFF4 F006          	movff	prodh,___wmul@product+1
  5444  00658E  5001               	movf	___wmul@multiplier^0,w,c
  5445  006590  0204               	mulwf	(___wmul@multiplicand+1)^0,c
  5446  006592  50F3               	movf	243,w,c
  5447  006594  2606               	addwf	(___wmul@product+1)^0,f,c
  5448  006596  5002               	movf	(___wmul@multiplier+1)^0,w,c
  5449  006598  0203               	mulwf	___wmul@multiplicand^0,c
  5450  00659A  50F3               	movf	243,w,c
  5451  00659C  2606               	addwf	(___wmul@product+1)^0,f,c
  5452  00659E  C005  F001         	movff	___wmul@product,?___wmul
  5453  0065A2  C006  F002         	movff	___wmul@product+1,?___wmul+1
  5454  0065A6  0012               	return		;funcret
  5455  0065A8                     __end_of___wmul:
  5456                           	callstack 0
  5457                           
  5458 ;; *************** function _GLCD_Init *****************
  5459 ;; Defined at:
  5460 ;;		line 168 in file "glcd.c"
  5461 ;; Parameters:    Size  Location     Type
  5462 ;;		None
  5463 ;; Auto vars:     Size  Location     Type
  5464 ;;		None
  5465 ;; Return value:  Size  Location     Type
  5466 ;;                  1    wreg      void 
  5467 ;; Registers used:
  5468 ;;		wreg, status,2, status,0, cstack
  5469 ;; Tracked objects:
  5470 ;;		On entry : 0/0
  5471 ;;		On exit  : 0/0
  5472 ;;		Unchanged: 0/0
  5473 ;; Data sizes:     COMRAM   BANK0   BANK1   BANK2   BANK3   BANK4   BANK5   BANK6   BANK7
  5474 ;;      Params:         0       0       0       0       0       0       0       0       0
  5475 ;;      Locals:         0       0       0       0       0       0       0       0       0
  5476 ;;      Temps:          0       0       0       0       0       0       0       0       0
  5477 ;;      Totals:         0       0       0       0       0       0       0       0       0
  5478 ;;Total ram usage:        0 bytes
  5479 ;; Hardware stack levels used:    1
  5480 ;; Hardware stack levels required when called:    6
  5481 ;; This function calls:
  5482 ;;		_DELAY_ms
  5483 ;;		_GLCD_Clear
  5484 ;;		_GLCD_GoToPage
  5485 ;;		_glcd_CmdWrite
  5486 ;;		_glcd_SelectPage0
  5487 ;;		_glcd_SelectPage1
  5488 ;; This function is called by:
  5489 ;;		_main
  5490 ;; This function uses a non-reentrant model
  5491 ;;
  5492                           
  5493                           	psect	text15
  5494  006702                     __ptext15:
  5495                           	callstack 0
  5496  006702                     _GLCD_Init:
  5497                           	callstack 24
  5498  006702                     
  5499                           ;glcd.c: 170:     TRISB = 0x00;
  5500  006702  0E00               	movlw	0
  5501  006704  6E93               	movwf	147,c	;volatile
  5502  006706                     
  5503                           ;glcd.c: 171:     TRISD &= ~((1<<0)|(1<<1)|(1<<2)|(1<<3)|(1<<4));
  5504  006706  0EE0               	movlw	224
  5505  006708  1695               	andwf	149,f,c	;volatile
  5506  00670A                     
  5507                           ;glcd.c: 174:  glcd_SelectPage0();
  5508  00670A  EC58  F032         	call	_glcd_SelectPage0	;wreg free
  5509  00670E                     
  5510                           ;glcd.c: 175:  glcd_CmdWrite(0x3f);
  5511  00670E  0E3F               	movlw	63
  5512  006710  EC8F  F032         	call	_glcd_CmdWrite
  5513  006714                     
  5514                           ;glcd.c: 176:  glcd_SelectPage1();
  5515  006714  EC5B  F032         	call	_glcd_SelectPage1	;wreg free
  5516  006718                     
  5517                           ;glcd.c: 177:  glcd_CmdWrite(0x3f);
  5518  006718  0E3F               	movlw	63
  5519  00671A  EC8F  F032         	call	_glcd_CmdWrite
  5520  00671E                     
  5521                           ;glcd.c: 178:  DELAY_ms(10);
  5522  00671E  0E00               	movlw	0
  5523  006720  6E04               	movwf	(DELAY_ms@ms_count+1)^0,c
  5524  006722  0E0A               	movlw	10
  5525  006724  6E03               	movwf	DELAY_ms@ms_count^0,c
  5526  006726  ECD4  F032         	call	_DELAY_ms	;wreg free
  5527  00672A                     
  5528                           ;glcd.c: 181:  glcd_SelectPage0();
  5529  00672A  EC58  F032         	call	_glcd_SelectPage0	;wreg free
  5530  00672E                     
  5531                           ;glcd.c: 182:  glcd_CmdWrite(0xc0);
  5532  00672E  0EC0               	movlw	192
  5533  006730  EC8F  F032         	call	_glcd_CmdWrite
  5534  006734                     
  5535                           ;glcd.c: 183:  glcd_SelectPage1();
  5536  006734  EC5B  F032         	call	_glcd_SelectPage1	;wreg free
  5537  006738                     
  5538                           ;glcd.c: 184:  glcd_CmdWrite(0xc0);
  5539  006738  0EC0               	movlw	192
  5540  00673A  EC8F  F032         	call	_glcd_CmdWrite
  5541  00673E                     
  5542                           ;glcd.c: 185:  GLCD_GoToPage(0);
  5543  00673E  0E00               	movlw	0
  5544  006740  EC01  F033         	call	_GLCD_GoToPage
  5545  006744                     
  5546                           ;glcd.c: 188:  GLCD_Clear();
  5547  006744  ECAE  F033         	call	_GLCD_Clear	;wreg free
  5548  006748                     
  5549                           ;glcd.c: 191:  GLCD.PageNum=0;
  5550  006748  0E00               	movlw	0
  5551  00674A  6E58               	movwf	_GLCD^0,c
  5552  00674C                     
  5553                           ;glcd.c: 192:  GLCD.LineNum=0xB8;
  5554  00674C  0EB8               	movlw	184
  5555  00674E  6E59               	movwf	(_GLCD+1)^0,c
  5556  006750                     
  5557                           ;glcd.c: 193:  GLCD.CursorPos=0x40;
  5558  006750  0E40               	movlw	64
  5559  006752  6E5A               	movwf	(_GLCD+2)^0,c
  5560  006754                     
  5561                           ;glcd.c: 194:  GLCD_GoToPage(0);
  5562  006754  0E00               	movlw	0
  5563  006756  EC01  F033         	call	_GLCD_GoToPage
  5564  00675A  0012               	return		;funcret
  5565  00675C                     __end_of_GLCD_Init:
  5566                           	callstack 0
  5567                           
  5568 ;; *************** function _GLCD_Clear *****************
  5569 ;; Defined at:
  5570 ;;		line 675 in file "glcd.c"
  5571 ;; Parameters:    Size  Location     Type
  5572 ;;		None
  5573 ;; Auto vars:     Size  Location     Type
  5574 ;;  line            1    6[COMRAM] unsigned char 
  5575 ;;  cursor          1    5[COMRAM] unsigned char 
  5576 ;; Return value:  Size  Location     Type
  5577 ;;                  1    wreg      void 
  5578 ;; Registers used:
  5579 ;;		wreg, status,2, status,0, cstack
  5580 ;; Tracked objects:
  5581 ;;		On entry : 0/0
  5582 ;;		On exit  : 0/0
  5583 ;;		Unchanged: 0/0
  5584 ;; Data sizes:     COMRAM   BANK0   BANK1   BANK2   BANK3   BANK4   BANK5   BANK6   BANK7
  5585 ;;      Params:         0       0       0       0       0       0       0       0       0
  5586 ;;      Locals:         2       0       0       0       0       0       0       0       0
  5587 ;;      Temps:          0       0       0       0       0       0       0       0       0
  5588 ;;      Totals:         2       0       0       0       0       0       0       0       0
  5589 ;;Total ram usage:        2 bytes
  5590 ;; Hardware stack levels used:    1
  5591 ;; Hardware stack levels required when called:    5
  5592 ;; This function calls:
  5593 ;;		_GLCD_GoToLine
  5594 ;;		_glcd_CmdWrite
  5595 ;;		_glcd_DataWrite
  5596 ;;		_glcd_SelectPage0
  5597 ;;		_glcd_SelectPage1
  5598 ;; This function is called by:
  5599 ;;		_main
  5600 ;;		_GLCD_Init
  5601 ;; This function uses a non-reentrant model
  5602 ;;
  5603                           
  5604                           	psect	text16
  5605  00675C                     __ptext16:
  5606                           	callstack 0
  5607  00675C                     _GLCD_Clear:
  5608                           	callstack 24
  5609  00675C                     
  5610                           ;glcd.c: 677:  uint8_t line,cursor;;glcd.c: 679:  for(line=0;line<8;line++)
  5611  00675C  0E00               	movlw	0
  5612  00675E  6E07               	movwf	GLCD_Clear@line^0,c
  5613  006760                     l2418:
  5614                           
  5615                           ;glcd.c: 680:  {;glcd.c: 681:   glcd_SelectPage0();
  5616  006760  EC58  F032         	call	_glcd_SelectPage0	;wreg free
  5617  006764                     
  5618                           ;glcd.c: 682:   glcd_CmdWrite(0x40);
  5619  006764  0E40               	movlw	64
  5620  006766  EC8F  F032         	call	_glcd_CmdWrite
  5621  00676A                     
  5622                           ;glcd.c: 683:   glcd_CmdWrite(0xB8 +line);
  5623  00676A  5007               	movf	GLCD_Clear@line^0,w,c
  5624  00676C  0FB8               	addlw	184
  5625  00676E  EC8F  F032         	call	_glcd_CmdWrite
  5626  006772                     
  5627                           ;glcd.c: 684:   for(cursor=0;cursor<128;cursor++)
  5628  006772  0E00               	movlw	0
  5629  006774  6E06               	movwf	GLCD_Clear@cursor^0,c
  5630  006776                     l2430:
  5631                           
  5632                           ;glcd.c: 685:   {;glcd.c: 686:    if(cursor==64)
  5633  006776  0E40               	movlw	64
  5634  006778  1806               	xorwf	GLCD_Clear@cursor^0,w,c
  5635  00677A  A4D8               	btfss	status,2,c
  5636  00677C  EFC2  F033         	goto	u1631
  5637  006780  EFC4  F033         	goto	u1630
  5638  006784                     u1631:
  5639  006784  EFCD  F033         	goto	l2438
  5640  006788                     u1630:
  5641  006788                     
  5642                           ;glcd.c: 687:    {;glcd.c: 688:     glcd_SelectPage1();
  5643  006788  EC5B  F032         	call	_glcd_SelectPage1	;wreg free
  5644  00678C                     
  5645                           ;glcd.c: 689:     glcd_CmdWrite(0x40);
  5646  00678C  0E40               	movlw	64
  5647  00678E  EC8F  F032         	call	_glcd_CmdWrite
  5648  006792                     
  5649                           ;glcd.c: 690:     glcd_CmdWrite(0xB8 +line);
  5650  006792  5007               	movf	GLCD_Clear@line^0,w,c
  5651  006794  0FB8               	addlw	184
  5652  006796  EC8F  F032         	call	_glcd_CmdWrite
  5653  00679A                     l2438:
  5654                           
  5655                           ;glcd.c: 692:    glcd_DataWrite(0x00);
  5656  00679A  0E00               	movlw	0
  5657  00679C  EC65  F032         	call	_glcd_DataWrite
  5658  0067A0                     
  5659                           ;glcd.c: 693:   }
  5660  0067A0  2A06               	incf	GLCD_Clear@cursor^0,f,c
  5661  0067A2  0E7F               	movlw	127
  5662  0067A4  6406               	cpfsgt	GLCD_Clear@cursor^0,c
  5663  0067A6  EFD7  F033         	goto	u1641
  5664  0067AA  EFD9  F033         	goto	u1640
  5665  0067AE                     u1641:
  5666  0067AE  EFBB  F033         	goto	l2430
  5667  0067B2                     u1640:
  5668  0067B2                     
  5669                           ;glcd.c: 694:  }
  5670  0067B2  2A07               	incf	GLCD_Clear@line^0,f,c
  5671  0067B4  0E07               	movlw	7
  5672  0067B6  6407               	cpfsgt	GLCD_Clear@line^0,c
  5673  0067B8  EFE0  F033         	goto	u1651
  5674  0067BC  EFE2  F033         	goto	u1650
  5675  0067C0                     u1651:
  5676  0067C0  EFB0  F033         	goto	l2418
  5677  0067C4                     u1650:
  5678  0067C4                     
  5679                           ;glcd.c: 696:  GLCD_GoToLine(0);
  5680  0067C4  0E00               	movlw	0
  5681  0067C6  EC9F  F032         	call	_GLCD_GoToLine
  5682  0067CA  0012               	return		;funcret
  5683  0067CC                     __end_of_GLCD_Clear:
  5684                           	callstack 0
  5685                           
  5686 ;; *************** function _GLCD_GoToLine *****************
  5687 ;; Defined at:
  5688 ;;		line 748 in file "glcd.c"
  5689 ;; Parameters:    Size  Location     Type
  5690 ;;  lineNumber      1    wreg     unsigned char 
  5691 ;; Auto vars:     Size  Location     Type
  5692 ;;  lineNumber      1    4[COMRAM] unsigned char 
  5693 ;; Return value:  Size  Location     Type
  5694 ;;                  1    wreg      void 
  5695 ;; Registers used:
  5696 ;;		wreg, status,2, status,0, cstack
  5697 ;; Tracked objects:
  5698 ;;		On entry : 0/0
  5699 ;;		On exit  : 0/0
  5700 ;;		Unchanged: 0/0
  5701 ;; Data sizes:     COMRAM   BANK0   BANK1   BANK2   BANK3   BANK4   BANK5   BANK6   BANK7
  5702 ;;      Params:         0       0       0       0       0       0       0       0       0
  5703 ;;      Locals:         1       0       0       0       0       0       0       0       0
  5704 ;;      Temps:          0       0       0       0       0       0       0       0       0
  5705 ;;      Totals:         1       0       0       0       0       0       0       0       0
  5706 ;;Total ram usage:        1 bytes
  5707 ;; Hardware stack levels used:    1
  5708 ;; Hardware stack levels required when called:    4
  5709 ;; This function calls:
  5710 ;;		_GLCD_GoToPage
  5711 ;; This function is called by:
  5712 ;;		_GLCD_Clear
  5713 ;; This function uses a non-reentrant model
  5714 ;;
  5715                           
  5716                           	psect	text17
  5717  00653E                     __ptext17:
  5718                           	callstack 0
  5719  00653E                     _GLCD_GoToLine:
  5720                           	callstack 24
  5721                           
  5722                           ;incstack = 0
  5723                           ;GLCD_GoToLine@lineNumber stored from wreg
  5724  00653E  6E05               	movwf	GLCD_GoToLine@lineNumber^0,c
  5725  006540                     
  5726                           ;glcd.c: 748: void GLCD_GoToLine(uint8_t lineNumber);glcd.c: 749: {;glcd.c: 750:  if(lin
      +                          eNumber<8)
  5727  006540  0E08               	movlw	8
  5728  006542  6005               	cpfslt	GLCD_GoToLine@lineNumber^0,c
  5729  006544  EFA6  F032         	goto	u1371
  5730  006548  EFA8  F032         	goto	u1370
  5731  00654C                     u1371:
  5732  00654C  EFAE  F032         	goto	l313
  5733  006550                     u1370:
  5734  006550                     
  5735                           ;glcd.c: 751:  {;glcd.c: 753:   GLCD.LineNum = lineNumber+0xB8;
  5736  006550  5005               	movf	GLCD_GoToLine@lineNumber^0,w,c
  5737  006552  0FB8               	addlw	184
  5738  006554  6E59               	movwf	(_GLCD+1)^0,c
  5739  006556                     
  5740                           ;glcd.c: 754:   GLCD_GoToPage(0);
  5741  006556  0E00               	movlw	0
  5742  006558  EC01  F033         	call	_GLCD_GoToPage
  5743  00655C                     l313:
  5744  00655C  0012               	return		;funcret
  5745  00655E                     __end_of_GLCD_GoToLine:
  5746                           	callstack 0
  5747                           
  5748 ;; *************** function _GLCD_GoToPage *****************
  5749 ;; Defined at:
  5750 ;;		line 712 in file "glcd.c"
  5751 ;; Parameters:    Size  Location     Type
  5752 ;;  pageNumber      1    wreg     unsigned char 
  5753 ;; Auto vars:     Size  Location     Type
  5754 ;;  pageNumber      1    3[COMRAM] unsigned char 
  5755 ;; Return value:  Size  Location     Type
  5756 ;;                  1    wreg      void 
  5757 ;; Registers used:
  5758 ;;		wreg, status,2, status,0, cstack
  5759 ;; Tracked objects:
  5760 ;;		On entry : 0/0
  5761 ;;		On exit  : 0/0
  5762 ;;		Unchanged: 0/0
  5763 ;; Data sizes:     COMRAM   BANK0   BANK1   BANK2   BANK3   BANK4   BANK5   BANK6   BANK7
  5764 ;;      Params:         0       0       0       0       0       0       0       0       0
  5765 ;;      Locals:         1       0       0       0       0       0       0       0       0
  5766 ;;      Temps:          0       0       0       0       0       0       0       0       0
  5767 ;;      Totals:         1       0       0       0       0       0       0       0       0
  5768 ;;Total ram usage:        1 bytes
  5769 ;; Hardware stack levels used:    1
  5770 ;; Hardware stack levels required when called:    3
  5771 ;; This function calls:
  5772 ;;		_glcd_CmdWrite
  5773 ;;		_glcd_SelectPage0
  5774 ;;		_glcd_SelectPage1
  5775 ;; This function is called by:
  5776 ;;		_GLCD_Init
  5777 ;;		_GLCD_DisplayChar
  5778 ;;		_GLCD_GoToLine
  5779 ;;		_GLCD_GoToNextLine
  5780 ;;		_GLCD_HorizontalGraph
  5781 ;; This function uses a non-reentrant model
  5782 ;;
  5783                           
  5784                           	psect	text18
  5785  006602                     __ptext18:
  5786                           	callstack 0
  5787  006602                     _GLCD_GoToPage:
  5788                           	callstack 23
  5789                           
  5790                           ;incstack = 0
  5791                           ;GLCD_GoToPage@pageNumber stored from wreg
  5792  006602  6E04               	movwf	GLCD_GoToPage@pageNumber^0,c
  5793  006604                     
  5794                           ;glcd.c: 712: void GLCD_GoToPage(uint8_t pageNumber);glcd.c: 713: {;glcd.c: 715:  if((pa
      +                          geNumber==0) || (pageNumber ==1))
  5795  006604  5004               	movf	GLCD_GoToPage@pageNumber^0,w,c
  5796  006606  B4D8               	btfsc	status,2,c
  5797  006608  EF08  F033         	goto	u1081
  5798  00660C  EF0A  F033         	goto	u1080
  5799  006610                     u1081:
  5800  006610  EF12  F033         	goto	l2024
  5801  006614                     u1080:
  5802  006614  0404               	decf	GLCD_GoToPage@pageNumber^0,w,c
  5803  006616  A4D8               	btfss	status,2,c
  5804  006618  EF10  F033         	goto	u1091
  5805  00661C  EF12  F033         	goto	u1090
  5806  006620                     u1091:
  5807  006620  EF2A  F033         	goto	l309
  5808  006624                     u1090:
  5809  006624                     l2024:
  5810                           
  5811                           ;glcd.c: 716:  {;glcd.c: 718:   if(pageNumber == 0)
  5812  006624  5004               	movf	GLCD_GoToPage@pageNumber^0,w,c
  5813  006626  A4D8               	btfss	status,2,c
  5814  006628  EF18  F033         	goto	u1101
  5815  00662C  EF1A  F033         	goto	u1100
  5816  006630                     u1101:
  5817  006630  EF1E  F033         	goto	l2028
  5818  006634                     u1100:
  5819  006634                     
  5820                           ;glcd.c: 719:   {;glcd.c: 721:    glcd_SelectPage0();
  5821  006634  EC58  F032         	call	_glcd_SelectPage0	;wreg free
  5822                           
  5823                           ;glcd.c: 722:   }
  5824  006638  EF20  F033         	goto	l2030
  5825  00663C                     l2028:
  5826                           
  5827                           ;glcd.c: 724:   {;glcd.c: 725:    glcd_SelectPage1();
  5828  00663C  EC5B  F032         	call	_glcd_SelectPage1	;wreg free
  5829  006640                     l2030:
  5830                           
  5831                           ;glcd.c: 728:   GLCD.PageNum=pageNumber;
  5832  006640  C004  F058         	movff	GLCD_GoToPage@pageNumber,_GLCD
  5833  006644                     
  5834                           ;glcd.c: 729:   GLCD.CursorPos=0x40;
  5835  006644  0E40               	movlw	64
  5836  006646  6E5A               	movwf	(_GLCD+2)^0,c
  5837  006648                     
  5838                           ;glcd.c: 730:   glcd_CmdWrite(GLCD.LineNum);
  5839  006648  5059               	movf	(_GLCD+1)^0,w,c
  5840  00664A  EC8F  F032         	call	_glcd_CmdWrite
  5841  00664E                     
  5842                           ;glcd.c: 731:   glcd_CmdWrite(GLCD.CursorPos);
  5843  00664E  505A               	movf	(_GLCD+2)^0,w,c
  5844  006650  EC8F  F032         	call	_glcd_CmdWrite
  5845  006654                     l309:
  5846  006654  0012               	return		;funcret
  5847  006656                     __end_of_GLCD_GoToPage:
  5848                           	callstack 0
  5849                           
  5850 ;; *************** function _DELAY_ms *****************
  5851 ;; Defined at:
  5852 ;;		line 70 in file "delay.c"
  5853 ;; Parameters:    Size  Location     Type
  5854 ;;  ms_count        2    2[COMRAM] unsigned short 
  5855 ;; Auto vars:     Size  Location     Type
  5856 ;;		None
  5857 ;; Return value:  Size  Location     Type
  5858 ;;                  1    wreg      void 
  5859 ;; Registers used:
  5860 ;;		wreg, status,2, status,0, cstack
  5861 ;; Tracked objects:
  5862 ;;		On entry : 0/0
  5863 ;;		On exit  : 0/0
  5864 ;;		Unchanged: 0/0
  5865 ;; Data sizes:     COMRAM   BANK0   BANK1   BANK2   BANK3   BANK4   BANK5   BANK6   BANK7
  5866 ;;      Params:         2       0       0       0       0       0       0       0       0
  5867 ;;      Locals:         0       0       0       0       0       0       0       0       0
  5868 ;;      Temps:          0       0       0       0       0       0       0       0       0
  5869 ;;      Totals:         2       0       0       0       0       0       0       0       0
  5870 ;;Total ram usage:        2 bytes
  5871 ;; Hardware stack levels used:    1
  5872 ;; Hardware stack levels required when called:    1
  5873 ;; This function calls:
  5874 ;;		_DELAY_us
  5875 ;; This function is called by:
  5876 ;;		_GLCD_Init
  5877 ;;		_DELAY_sec
  5878 ;; This function uses a non-reentrant model
  5879 ;;
  5880                           
  5881                           	psect	text19
  5882  0065A8                     __ptext19:
  5883                           	callstack 0
  5884  0065A8                     _DELAY_ms:
  5885                           	callstack 28
  5886  0065A8                     
  5887                           ;delay.c: 70: void DELAY_ms(uint16_t ms_count);delay.c: 71: {;delay.c: 72:     while (ms
      +                          _count != 0)
  5888  0065A8  EFDF  F032         	goto	l2454
  5889  0065AC                     l2450:
  5890                           
  5891                           ;delay.c: 73:     {;delay.c: 74:         DELAY_us(300u);
  5892  0065AC  0E01               	movlw	1
  5893  0065AE  6E02               	movwf	(DELAY_us@us_count+1)^0,c
  5894  0065B0  0E2C               	movlw	44
  5895  0065B2  6E01               	movwf	DELAY_us@us_count^0,c
  5896  0065B4  EC71  F032         	call	_DELAY_us	;wreg free
  5897  0065B8                     
  5898                           ;delay.c: 75:         ms_count--;
  5899  0065B8  0603               	decf	DELAY_ms@ms_count^0,f,c
  5900  0065BA  A0D8               	btfss	status,0,c
  5901  0065BC  0604               	decf	(DELAY_ms@ms_count+1)^0,f,c
  5902  0065BE                     l2454:
  5903                           
  5904                           ;delay.c: 72:     while (ms_count != 0)
  5905  0065BE  5003               	movf	DELAY_ms@ms_count^0,w,c
  5906  0065C0  1004               	iorwf	(DELAY_ms@ms_count+1)^0,w,c
  5907  0065C2  A4D8               	btfss	status,2,c
  5908  0065C4  EFE6  F032         	goto	u1661
  5909  0065C8  EFE8  F032         	goto	u1660
  5910  0065CC                     u1661:
  5911  0065CC  EFD6  F032         	goto	l2450
  5912  0065D0                     u1660:
  5913  0065D0  0012               	return		;funcret
  5914  0065D2                     __end_of_DELAY_ms:
  5915                           	callstack 0
  5916                           
  5917 ;; *************** function _GLCD_DisplayLogo *****************
  5918 ;; Defined at:
  5919 ;;		line 843 in file "glcd.c"
  5920 ;; Parameters:    Size  Location     Type
  5921 ;;  ptr_Logo        3    3[COMRAM] PTR const unsigned char 
  5922 ;;		 -> ROM(32767), 
  5923 ;; Auto vars:     Size  Location     Type
  5924 ;;  line            1    7[COMRAM] unsigned char 
  5925 ;;  cursor          1    6[COMRAM] unsigned char 
  5926 ;; Return value:  Size  Location     Type
  5927 ;;                  1    wreg      void 
  5928 ;; Registers used:
  5929 ;;		wreg, status,2, status,0, tblptrl, tblptrh, tblptru, cstack
  5930 ;; Tracked objects:
  5931 ;;		On entry : 0/0
  5932 ;;		On exit  : 0/0
  5933 ;;		Unchanged: 0/0
  5934 ;; Data sizes:     COMRAM   BANK0   BANK1   BANK2   BANK3   BANK4   BANK5   BANK6   BANK7
  5935 ;;      Params:         3       0       0       0       0       0       0       0       0
  5936 ;;      Locals:         2       0       0       0       0       0       0       0       0
  5937 ;;      Temps:          0       0       0       0       0       0       0       0       0
  5938 ;;      Totals:         5       0       0       0       0       0       0       0       0
  5939 ;;Total ram usage:        5 bytes
  5940 ;; Hardware stack levels used:    1
  5941 ;; Hardware stack levels required when called:    3
  5942 ;; This function calls:
  5943 ;;		_glcd_CmdWrite
  5944 ;;		_glcd_DataWrite
  5945 ;;		_glcd_SelectPage0
  5946 ;;		_glcd_SelectPage1
  5947 ;; This function is called by:
  5948 ;;		_main
  5949 ;; This function uses a non-reentrant model
  5950 ;;
  5951                           
  5952                           	psect	text20
  5953  0068B0                     __ptext20:
  5954                           	callstack 0
  5955  0068B0                     _GLCD_DisplayLogo:
  5956                           	callstack 27
  5957  0068B0                     
  5958                           ;glcd.c: 843: void GLCD_DisplayLogo(const char ptr_Logo[]);glcd.c: 844: {;glcd.c: 845:  
      +                          uint8_t line,cursor;;glcd.c: 847:  for(line=0;line<8;line++)
  5959  0068B0  0E00               	movlw	0
  5960  0068B2  6E08               	movwf	GLCD_DisplayLogo@line^0,c
  5961  0068B4                     l2496:
  5962                           
  5963                           ;glcd.c: 848:  {;glcd.c: 849:   glcd_SelectPage0();
  5964  0068B4  EC58  F032         	call	_glcd_SelectPage0	;wreg free
  5965  0068B8                     
  5966                           ;glcd.c: 850:      glcd_CmdWrite(0x40);
  5967  0068B8  0E40               	movlw	64
  5968  0068BA  EC8F  F032         	call	_glcd_CmdWrite
  5969  0068BE                     
  5970                           ;glcd.c: 851:   glcd_CmdWrite(0xB8 +line);
  5971  0068BE  5008               	movf	GLCD_DisplayLogo@line^0,w,c
  5972  0068C0  0FB8               	addlw	184
  5973  0068C2  EC8F  F032         	call	_glcd_CmdWrite
  5974  0068C6                     
  5975                           ;glcd.c: 852:   for(cursor=0;cursor<128;cursor++)
  5976  0068C6  0E00               	movlw	0
  5977  0068C8  6E07               	movwf	GLCD_DisplayLogo@cursor^0,c
  5978  0068CA                     l2508:
  5979                           
  5980                           ;glcd.c: 853:   {;glcd.c: 854:    if(cursor==64)
  5981  0068CA  0E40               	movlw	64
  5982  0068CC  1807               	xorwf	GLCD_DisplayLogo@cursor^0,w,c
  5983  0068CE  A4D8               	btfss	status,2,c
  5984  0068D0  EF6C  F034         	goto	u1671
  5985  0068D4  EF6E  F034         	goto	u1670
  5986  0068D8                     u1671:
  5987  0068D8  EF77  F034         	goto	l2516
  5988  0068DC                     u1670:
  5989  0068DC                     
  5990                           ;glcd.c: 855:    {;glcd.c: 856:     glcd_SelectPage1();
  5991  0068DC  EC5B  F032         	call	_glcd_SelectPage1	;wreg free
  5992  0068E0                     
  5993                           ;glcd.c: 857:     glcd_CmdWrite(0x40);
  5994  0068E0  0E40               	movlw	64
  5995  0068E2  EC8F  F032         	call	_glcd_CmdWrite
  5996  0068E6                     
  5997                           ;glcd.c: 858:     glcd_CmdWrite(0xB8 +line);
  5998  0068E6  5008               	movf	GLCD_DisplayLogo@line^0,w,c
  5999  0068E8  0FB8               	addlw	184
  6000  0068EA  EC8F  F032         	call	_glcd_CmdWrite
  6001  0068EE                     l2516:
  6002                           
  6003                           ;glcd.c: 860:    glcd_DataWrite(*ptr_Logo++);
  6004  0068EE  C004  FFF6         	movff	GLCD_DisplayLogo@ptr_Logo,tblptrl
  6005  0068F2  C005  FFF7         	movff	GLCD_DisplayLogo@ptr_Logo+1,tblptrh
  6006  0068F6  C006  FFF8         	movff	GLCD_DisplayLogo@ptr_Logo+2,tblptru
  6007  0068FA  0008               	tblrd		*
  6008  0068FC  50F5               	movf	tablat,w,c
  6009  0068FE  EC65  F032         	call	_glcd_DataWrite
  6010  006902  0E01               	movlw	1
  6011  006904  2604               	addwf	GLCD_DisplayLogo@ptr_Logo^0,f,c
  6012  006906  0E00               	movlw	0
  6013  006908  2205               	addwfc	(GLCD_DisplayLogo@ptr_Logo+1)^0,f,c
  6014  00690A  0E00               	movlw	0
  6015  00690C  2206               	addwfc	(GLCD_DisplayLogo@ptr_Logo+2)^0,f,c
  6016  00690E                     
  6017                           ;glcd.c: 861:   }
  6018  00690E  2A07               	incf	GLCD_DisplayLogo@cursor^0,f,c
  6019  006910  0E7F               	movlw	127
  6020  006912  6407               	cpfsgt	GLCD_DisplayLogo@cursor^0,c
  6021  006914  EF8E  F034         	goto	u1681
  6022  006918  EF90  F034         	goto	u1680
  6023  00691C                     u1681:
  6024  00691C  EF65  F034         	goto	l2508
  6025  006920                     u1680:
  6026  006920                     
  6027                           ;glcd.c: 862:  }
  6028  006920  2A08               	incf	GLCD_DisplayLogo@line^0,f,c
  6029  006922  0E07               	movlw	7
  6030  006924  6408               	cpfsgt	GLCD_DisplayLogo@line^0,c
  6031  006926  EF97  F034         	goto	u1691
  6032  00692A  EF99  F034         	goto	u1690
  6033  00692E                     u1691:
  6034  00692E  EF5A  F034         	goto	l2496
  6035  006932                     u1690:
  6036  006932  0012               	return		;funcret
  6037  006934                     __end_of_GLCD_DisplayLogo:
  6038                           	callstack 0
  6039                           
  6040 ;; *************** function _glcd_SelectPage1 *****************
  6041 ;; Defined at:
  6042 ;;		line 1054 in file "glcd.c"
  6043 ;; Parameters:    Size  Location     Type
  6044 ;;		None
  6045 ;; Auto vars:     Size  Location     Type
  6046 ;;		None
  6047 ;; Return value:  Size  Location     Type
  6048 ;;                  1    wreg      void 
  6049 ;; Registers used:
  6050 ;;		status,2, status,0
  6051 ;; Tracked objects:
  6052 ;;		On entry : 0/0
  6053 ;;		On exit  : 0/0
  6054 ;;		Unchanged: 0/0
  6055 ;; Data sizes:     COMRAM   BANK0   BANK1   BANK2   BANK3   BANK4   BANK5   BANK6   BANK7
  6056 ;;      Params:         0       0       0       0       0       0       0       0       0
  6057 ;;      Locals:         0       0       0       0       0       0       0       0       0
  6058 ;;      Temps:          0       0       0       0       0       0       0       0       0
  6059 ;;      Totals:         0       0       0       0       0       0       0       0       0
  6060 ;;Total ram usage:        0 bytes
  6061 ;; Hardware stack levels used:    1
  6062 ;; This function calls:
  6063 ;;		Nothing
  6064 ;; This function is called by:
  6065 ;;		_GLCD_Init
  6066 ;;		_GLCD_Clear
  6067 ;;		_GLCD_GoToPage
  6068 ;;		_GLCD_SetCursor
  6069 ;;		_GLCD_DisplayLogo
  6070 ;; This function uses a non-reentrant model
  6071 ;;
  6072                           
  6073                           	psect	text21
  6074  0064B6                     __ptext21:
  6075                           	callstack 0
  6076  0064B6                     _glcd_SelectPage1:
  6077                           	callstack 28
  6078  0064B6                     
  6079                           ;glcd.c: 1056:  (((PORTD)) |= ((uint32_t)1<<((0))));
  6080  0064B6  8083               	bsf	131,0,c	;volatile
  6081                           
  6082                           ;glcd.c: 1057:  (((PORTD)) &= ~((uint32_t)1<<((1))));
  6083  0064B8  9283               	bcf	131,1,c	;volatile
  6084  0064BA  0012               	return		;funcret
  6085  0064BC                     __end_of_glcd_SelectPage1:
  6086                           	callstack 0
  6087                           
  6088 ;; *************** function _glcd_SelectPage0 *****************
  6089 ;; Defined at:
  6090 ;;		line 1046 in file "glcd.c"
  6091 ;; Parameters:    Size  Location     Type
  6092 ;;		None
  6093 ;; Auto vars:     Size  Location     Type
  6094 ;;		None
  6095 ;; Return value:  Size  Location     Type
  6096 ;;                  1    wreg      void 
  6097 ;; Registers used:
  6098 ;;		status,2, status,0
  6099 ;; Tracked objects:
  6100 ;;		On entry : 0/0
  6101 ;;		On exit  : 0/0
  6102 ;;		Unchanged: 0/0
  6103 ;; Data sizes:     COMRAM   BANK0   BANK1   BANK2   BANK3   BANK4   BANK5   BANK6   BANK7
  6104 ;;      Params:         0       0       0       0       0       0       0       0       0
  6105 ;;      Locals:         0       0       0       0       0       0       0       0       0
  6106 ;;      Temps:          0       0       0       0       0       0       0       0       0
  6107 ;;      Totals:         0       0       0       0       0       0       0       0       0
  6108 ;;Total ram usage:        0 bytes
  6109 ;; Hardware stack levels used:    1
  6110 ;; This function calls:
  6111 ;;		Nothing
  6112 ;; This function is called by:
  6113 ;;		_GLCD_Init
  6114 ;;		_GLCD_Clear
  6115 ;;		_GLCD_GoToPage
  6116 ;;		_GLCD_SetCursor
  6117 ;;		_GLCD_DisplayLogo
  6118 ;; This function uses a non-reentrant model
  6119 ;;
  6120                           
  6121                           	psect	text22
  6122  0064B0                     __ptext22:
  6123                           	callstack 0
  6124  0064B0                     _glcd_SelectPage0:
  6125                           	callstack 28
  6126  0064B0                     
  6127                           ;glcd.c: 1048:  (((PORTD)) |= ((uint32_t)1<<((1))));
  6128  0064B0  8283               	bsf	131,1,c	;volatile
  6129                           
  6130                           ;glcd.c: 1049:  (((PORTD)) &= ~((uint32_t)1<<((0))));
  6131  0064B2  9083               	bcf	131,0,c	;volatile
  6132  0064B4  0012               	return		;funcret
  6133  0064B6                     __end_of_glcd_SelectPage0:
  6134                           	callstack 0
  6135                           
  6136 ;; *************** function _glcd_DataWrite *****************
  6137 ;; Defined at:
  6138 ;;		line 1032 in file "glcd.c"
  6139 ;; Parameters:    Size  Location     Type
  6140 ;;  dat             1    wreg     unsigned char 
  6141 ;; Auto vars:     Size  Location     Type
  6142 ;;  dat             1    2[COMRAM] unsigned char 
  6143 ;; Return value:  Size  Location     Type
  6144 ;;                  1    wreg      void 
  6145 ;; Registers used:
  6146 ;;		wreg, status,2, status,0, cstack
  6147 ;; Tracked objects:
  6148 ;;		On entry : 0/0
  6149 ;;		On exit  : 0/0
  6150 ;;		Unchanged: 0/0
  6151 ;; Data sizes:     COMRAM   BANK0   BANK1   BANK2   BANK3   BANK4   BANK5   BANK6   BANK7
  6152 ;;      Params:         0       0       0       0       0       0       0       0       0
  6153 ;;      Locals:         1       0       0       0       0       0       0       0       0
  6154 ;;      Temps:          0       0       0       0       0       0       0       0       0
  6155 ;;      Totals:         1       0       0       0       0       0       0       0       0
  6156 ;;Total ram usage:        1 bytes
  6157 ;; Hardware stack levels used:    1
  6158 ;; Hardware stack levels required when called:    2
  6159 ;; This function calls:
  6160 ;;		_glcd_BusyCheck
  6161 ;; This function is called by:
  6162 ;;		_GLCD_DisplayChar
  6163 ;;		_GLCD_Clear
  6164 ;;		_GLCD_DisplayLogo
  6165 ;;		_GLCD_VerticalGraph
  6166 ;;		_GLCD_HorizontalGraph
  6167 ;; This function uses a non-reentrant model
  6168 ;;
  6169                           
  6170                           	psect	text23
  6171  0064CA                     __ptext23:
  6172                           	callstack 0
  6173  0064CA                     _glcd_DataWrite:
  6174                           	callstack 24
  6175                           
  6176                           ;incstack = 0
  6177                           ;glcd_DataWrite@dat stored from wreg
  6178  0064CA  6E03               	movwf	glcd_DataWrite@dat^0,c
  6179  0064CC                     
  6180                           ;glcd.c: 1032: void glcd_DataWrite(uint8_t dat);glcd.c: 1033: {;glcd.c: 1034:  glcd_Busy
      +                          Check();
  6181  0064CC  EC5E  F032         	call	_glcd_BusyCheck	;wreg free
  6182  0064D0                     
  6183                           ;glcd.c: 1035:  PORTB = dat ^ GLCD.Invertdisplay;
  6184  0064D0  505B               	movf	(_GLCD+3)^0,w,c
  6185  0064D2  1803               	xorwf	glcd_DataWrite@dat^0,w,c
  6186  0064D4  6E81               	movwf	129,c	;volatile
  6187  0064D6                     
  6188                           ;glcd.c: 1036:  (((PORTD)) |= ((uint32_t)1<<((3))));
  6189  0064D6  8683               	bsf	131,3,c	;volatile
  6190  0064D8                     
  6191                           ;glcd.c: 1037:  (((PORTD)) &= ~((uint32_t)1<<((2))));
  6192  0064D8  9483               	bcf	131,2,c	;volatile
  6193  0064DA                     
  6194                           ;glcd.c: 1038:  (((PORTD)) |= ((uint32_t)1<<((4))));
  6195  0064DA  8883               	bsf	131,4,c	;volatile
  6196  0064DC                     
  6197                           ;glcd.c: 1039:     _delay((unsigned long)((0.5)*(16000000/4000000.0)));
  6198  0064DC  D000               	nop2		;2 cycle nop
  6199  0064DE                     
  6200                           ;glcd.c: 1041:  (((PORTD)) &= ~((uint32_t)1<<((4))));
  6201  0064DE  9883               	bcf	131,4,c	;volatile
  6202  0064E0  0012               	return		;funcret
  6203  0064E2                     __end_of_glcd_DataWrite:
  6204                           	callstack 0
  6205                           
  6206 ;; *************** function _glcd_CmdWrite *****************
  6207 ;; Defined at:
  6208 ;;		line 1019 in file "glcd.c"
  6209 ;; Parameters:    Size  Location     Type
  6210 ;;  cmd             1    wreg     unsigned char 
  6211 ;; Auto vars:     Size  Location     Type
  6212 ;;  cmd             1    2[COMRAM] unsigned char 
  6213 ;; Return value:  Size  Location     Type
  6214 ;;                  1    wreg      void 
  6215 ;; Registers used:
  6216 ;;		wreg, status,2, status,0, cstack
  6217 ;; Tracked objects:
  6218 ;;		On entry : 0/0
  6219 ;;		On exit  : 0/0
  6220 ;;		Unchanged: 0/0
  6221 ;; Data sizes:     COMRAM   BANK0   BANK1   BANK2   BANK3   BANK4   BANK5   BANK6   BANK7
  6222 ;;      Params:         0       0       0       0       0       0       0       0       0
  6223 ;;      Locals:         1       0       0       0       0       0       0       0       0
  6224 ;;      Temps:          0       0       0       0       0       0       0       0       0
  6225 ;;      Totals:         1       0       0       0       0       0       0       0       0
  6226 ;;Total ram usage:        1 bytes
  6227 ;; Hardware stack levels used:    1
  6228 ;; Hardware stack levels required when called:    2
  6229 ;; This function calls:
  6230 ;;		_DELAY_us
  6231 ;;		_glcd_BusyCheck
  6232 ;; This function is called by:
  6233 ;;		_GLCD_Init
  6234 ;;		_GLCD_Clear
  6235 ;;		_GLCD_GoToPage
  6236 ;;		_GLCD_SetCursor
  6237 ;;		_GLCD_DisplayLogo
  6238 ;; This function uses a non-reentrant model
  6239 ;;
  6240                           
  6241                           	psect	text24
  6242  00651E                     __ptext24:
  6243                           	callstack 0
  6244  00651E                     _glcd_CmdWrite:
  6245                           	callstack 26
  6246                           
  6247                           ;incstack = 0
  6248                           ;glcd_CmdWrite@cmd stored from wreg
  6249  00651E  6E03               	movwf	glcd_CmdWrite@cmd^0,c
  6250  006520                     
  6251                           ;glcd.c: 1019: void glcd_CmdWrite( uint8_t cmd);glcd.c: 1020: {;glcd.c: 1021:  glcd_Busy
      +                          Check();
  6252  006520  EC5E  F032         	call	_glcd_BusyCheck	;wreg free
  6253  006524                     
  6254                           ;glcd.c: 1022:  PORTB = cmd;
  6255  006524  C003  FF81         	movff	glcd_CmdWrite@cmd,3969	;volatile
  6256  006528                     
  6257                           ;glcd.c: 1023:  (((PORTD)) &= ~((uint32_t)1<<((3))));
  6258  006528  9683               	bcf	131,3,c	;volatile
  6259  00652A                     
  6260                           ;glcd.c: 1024:  (((PORTD)) &= ~((uint32_t)1<<((2))));
  6261  00652A  9483               	bcf	131,2,c	;volatile
  6262  00652C                     
  6263                           ;glcd.c: 1025:  (((PORTD)) |= ((uint32_t)1<<((4))));
  6264  00652C  8883               	bsf	131,4,c	;volatile
  6265  00652E                     
  6266                           ;glcd.c: 1026:  DELAY_us(1);
  6267  00652E  0E00               	movlw	0
  6268  006530  6E02               	movwf	(DELAY_us@us_count+1)^0,c
  6269  006532  0E01               	movlw	1
  6270  006534  6E01               	movwf	DELAY_us@us_count^0,c
  6271  006536  EC71  F032         	call	_DELAY_us	;wreg free
  6272                           
  6273                           ;glcd.c: 1027:  (((PORTD)) &= ~((uint32_t)1<<((4))));
  6274  00653A  9883               	bcf	131,4,c	;volatile
  6275  00653C  0012               	return		;funcret
  6276  00653E                     __end_of_glcd_CmdWrite:
  6277                           	callstack 0
  6278                           
  6279 ;; *************** function _glcd_BusyCheck *****************
  6280 ;; Defined at:
  6281 ;;		line 1064 in file "glcd.c"
  6282 ;; Parameters:    Size  Location     Type
  6283 ;;		None
  6284 ;; Auto vars:     Size  Location     Type
  6285 ;;		None
  6286 ;; Return value:  Size  Location     Type
  6287 ;;                  1    wreg      void 
  6288 ;; Registers used:
  6289 ;;		wreg, status,2, status,0, cstack
  6290 ;; Tracked objects:
  6291 ;;		On entry : 0/0
  6292 ;;		On exit  : 0/0
  6293 ;;		Unchanged: 0/0
  6294 ;; Data sizes:     COMRAM   BANK0   BANK1   BANK2   BANK3   BANK4   BANK5   BANK6   BANK7
  6295 ;;      Params:         0       0       0       0       0       0       0       0       0
  6296 ;;      Locals:         0       0       0       0       0       0       0       0       0
  6297 ;;      Temps:          0       0       0       0       0       0       0       0       0
  6298 ;;      Totals:         0       0       0       0       0       0       0       0       0
  6299 ;;Total ram usage:        0 bytes
  6300 ;; Hardware stack levels used:    1
  6301 ;; Hardware stack levels required when called:    1
  6302 ;; This function calls:
  6303 ;;		_DELAY_us
  6304 ;; This function is called by:
  6305 ;;		_glcd_CmdWrite
  6306 ;;		_glcd_DataWrite
  6307 ;; This function uses a non-reentrant model
  6308 ;;
  6309                           
  6310                           	psect	text25
  6311  0064BC                     __ptext25:
  6312                           	callstack 0
  6313  0064BC                     _glcd_BusyCheck:
  6314                           	callstack 26
  6315  0064BC                     
  6316                           ;glcd.c: 1084:  DELAY_us(10);
  6317  0064BC  0E00               	movlw	0
  6318  0064BE  6E02               	movwf	(DELAY_us@us_count+1)^0,c
  6319  0064C0  0E0A               	movlw	10
  6320  0064C2  6E01               	movwf	DELAY_us@us_count^0,c
  6321  0064C4  EC71  F032         	call	_DELAY_us	;wreg free
  6322  0064C8  0012               	return		;funcret
  6323  0064CA                     __end_of_glcd_BusyCheck:
  6324                           	callstack 0
  6325                           
  6326 ;; *************** function _DELAY_us *****************
  6327 ;; Defined at:
  6328 ;;		line 52 in file "delay.c"
  6329 ;; Parameters:    Size  Location     Type
  6330 ;;  us_count        2    0[COMRAM] unsigned short 
  6331 ;; Auto vars:     Size  Location     Type
  6332 ;;		None
  6333 ;; Return value:  Size  Location     Type
  6334 ;;                  1    wreg      void 
  6335 ;; Registers used:
  6336 ;;		wreg, status,2, status,0
  6337 ;; Tracked objects:
  6338 ;;		On entry : 0/0
  6339 ;;		On exit  : 0/0
  6340 ;;		Unchanged: 0/0
  6341 ;; Data sizes:     COMRAM   BANK0   BANK1   BANK2   BANK3   BANK4   BANK5   BANK6   BANK7
  6342 ;;      Params:         2       0       0       0       0       0       0       0       0
  6343 ;;      Locals:         0       0       0       0       0       0       0       0       0
  6344 ;;      Temps:          0       0       0       0       0       0       0       0       0
  6345 ;;      Totals:         2       0       0       0       0       0       0       0       0
  6346 ;;Total ram usage:        2 bytes
  6347 ;; Hardware stack levels used:    1
  6348 ;; This function calls:
  6349 ;;		Nothing
  6350 ;; This function is called by:
  6351 ;;		_glcd_CmdWrite
  6352 ;;		_glcd_BusyCheck
  6353 ;;		_DELAY_ms
  6354 ;; This function uses a non-reentrant model
  6355 ;;
  6356                           
  6357                           	psect	text26
  6358  0064E2                     __ptext26:
  6359                           	callstack 0
  6360  0064E2                     _DELAY_us:
  6361                           	callstack 26
  6362  0064E2                     
  6363                           ;delay.c: 52: void DELAY_us(uint16_t us_count);delay.c: 53: {;delay.c: 54:     while (us
      +                          _count != 0)
  6364  0064E2  EF76  F032         	goto	l2000
  6365  0064E6                     l1998:
  6366                           
  6367                           ;delay.c: 55:     {;delay.c: 56:         us_count--;
  6368  0064E6  0601               	decf	DELAY_us@us_count^0,f,c
  6369  0064E8  A0D8               	btfss	status,0,c
  6370  0064EA  0602               	decf	(DELAY_us@us_count+1)^0,f,c
  6371  0064EC                     l2000:
  6372                           
  6373                           ;delay.c: 54:     while (us_count != 0)
  6374  0064EC  5001               	movf	DELAY_us@us_count^0,w,c
  6375  0064EE  1002               	iorwf	(DELAY_us@us_count+1)^0,w,c
  6376  0064F0  A4D8               	btfss	status,2,c
  6377  0064F2  EF7D  F032         	goto	u1071
  6378  0064F6  EF7F  F032         	goto	u1070
  6379  0064FA                     u1071:
  6380  0064FA  EF73  F032         	goto	l1998
  6381  0064FE                     u1070:
  6382  0064FE  0012               	return		;funcret
  6383  006500                     __end_of_DELAY_us:
  6384                           	callstack 0
  6385                           
  6386                           	psect	rparam
  6387  0000                     
  6388                           	psect	idloc
  6389                           
  6390                           ;Config register IDLOC0 @ 0x200000
  6391                           ;	unspecified, using default values
  6392  200000                     	org	2097152
  6393  200000  FF                 	db	255
  6394                           
  6395                           ;Config register IDLOC1 @ 0x200001
  6396                           ;	unspecified, using default values
  6397  200001                     	org	2097153
  6398  200001  FF                 	db	255
  6399                           
  6400                           ;Config register IDLOC2 @ 0x200002
  6401                           ;	unspecified, using default values
  6402  200002                     	org	2097154
  6403  200002  FF                 	db	255
  6404                           
  6405                           ;Config register IDLOC3 @ 0x200003
  6406                           ;	unspecified, using default values
  6407  200003                     	org	2097155
  6408  200003  FF                 	db	255
  6409                           
  6410                           ;Config register IDLOC4 @ 0x200004
  6411                           ;	unspecified, using default values
  6412  200004                     	org	2097156
  6413  200004  FF                 	db	255
  6414                           
  6415                           ;Config register IDLOC5 @ 0x200005
  6416                           ;	unspecified, using default values
  6417  200005                     	org	2097157
  6418  200005  FF                 	db	255
  6419                           
  6420                           ;Config register IDLOC6 @ 0x200006
  6421                           ;	unspecified, using default values
  6422  200006                     	org	2097158
  6423  200006  FF                 	db	255
  6424                           
  6425                           ;Config register IDLOC7 @ 0x200007
  6426                           ;	unspecified, using default values
  6427  200007                     	org	2097159
  6428  200007  FF                 	db	255
  6429                           
  6430                           	psect	config
  6431                           
  6432                           ;Config register CONFIG1L @ 0x300000
  6433                           ;	unspecified, using default values
  6434                           ;	PLL Prescaler Selection bits
  6435                           ;	PLLDIV = 0x0, unprogrammed default
  6436                           ;	System Clock Postscaler Selection bits
  6437                           ;	CPUDIV = 0x0, unprogrammed default
  6438                           ;	USB Clock Selection bit (used in Full-Speed USB mode only; UCFG:FSEN = 1)
  6439                           ;	USBDIV = 0x0, unprogrammed default
  6440  300000                     	org	3145728
  6441  300000  00                 	db	0
  6442                           
  6443                           ;Config register CONFIG1H @ 0x300001
  6444                           ;	Oscillator Selection bits
  6445                           ;	FOSC = HS, HS oscillator (HS)
  6446                           ;	Fail-Safe Clock Monitor Enable bit
  6447                           ;	FCMEN = OFF, Fail-Safe Clock Monitor disabled
  6448                           ;	Internal/External Oscillator Switchover bit
  6449                           ;	IESO = OFF, Oscillator Switchover mode disabled
  6450  300001                     	org	3145729
  6451  300001  0C                 	db	12
  6452                           
  6453                           ;Config register CONFIG2L @ 0x300002
  6454                           ;	Power-up Timer Enable bit
  6455                           ;	PWRT = OFF, PWRT disabled
  6456                           ;	Brown-out Reset Enable bits
  6457                           ;	BOR = OFF, Brown-out Reset disabled in hardware and software
  6458                           ;	Brown-out Reset Voltage bits
  6459                           ;	BORV = 0, Maximum setting 4.59V
  6460                           ;	USB Voltage Regulator Enable bit
  6461                           ;	VREGEN = OFF, USB voltage regulator disabled
  6462  300002                     	org	3145730
  6463  300002  01                 	db	1
  6464                           
  6465                           ;Config register CONFIG2H @ 0x300003
  6466                           ;	Watchdog Timer Enable bit
  6467                           ;	WDT = OFF, WDT disabled (control is placed on the SWDTEN bit)
  6468                           ;	Watchdog Timer Postscale Select bits
  6469                           ;	WDTPS = 32768, 1:32768
  6470  300003                     	org	3145731
  6471  300003  1E                 	db	30
  6472                           
  6473                           ; Padding undefined space
  6474  300004                     	org	3145732
  6475  300004  FF                 	db	255
  6476                           
  6477                           ;Config register CONFIG3H @ 0x300005
  6478                           ;	CCP2 MUX bit
  6479                           ;	CCP2MX = ON, CCP2 input/output is multiplexed with RC1
  6480                           ;	PORTB A/D Enable bit
  6481                           ;	PBADEN = OFF, PORTB<4:0> pins are configured as digital I/O on Reset
  6482                           ;	Low-Power Timer 1 Oscillator Enable bit
  6483                           ;	LPT1OSC = 0x0, unprogrammed default
  6484                           ;	MCLR Pin Enable bit
  6485                           ;	MCLRE = ON, MCLR pin enabled; RE3 input pin disabled
  6486  300005                     	org	3145733
  6487  300005  81                 	db	129
  6488                           
  6489                           ;Config register CONFIG4L @ 0x300006
  6490                           ;	Stack Full/Underflow Reset Enable bit
  6491                           ;	STVREN = OFF, Stack full/underflow will not cause Reset
  6492                           ;	Single-Supply ICSP Enable bit
  6493                           ;	LVP = OFF, Single-Supply ICSP disabled
  6494                           ;	Dedicated In-Circuit Debug/Programming Port (ICPORT) Enable bit
  6495                           ;	ICPRT = 0x0, unprogrammed default
  6496                           ;	Extended Instruction Set Enable bit
  6497                           ;	XINST = 0x0, unprogrammed default
  6498                           ;	Background Debugger Enable bit
  6499                           ;	DEBUG = 0x1, unprogrammed default
  6500  300006                     	org	3145734
  6501  300006  80                 	db	128
  6502                           
  6503                           ; Padding undefined space
  6504  300007                     	org	3145735
  6505  300007  FF                 	db	255
  6506                           
  6507                           ;Config register CONFIG5L @ 0x300008
  6508                           ;	unspecified, using default values
  6509                           ;	Code Protection bit
  6510                           ;	CP0 = 0x1, unprogrammed default
  6511                           ;	Code Protection bit
  6512                           ;	CP1 = 0x1, unprogrammed default
  6513                           ;	Code Protection bit
  6514                           ;	CP2 = 0x1, unprogrammed default
  6515                           ;	Code Protection bit
  6516                           ;	CP3 = 0x1, unprogrammed default
  6517  300008                     	org	3145736
  6518  300008  0F                 	db	15
  6519                           
  6520                           ;Config register CONFIG5H @ 0x300009
  6521                           ;	unspecified, using default values
  6522                           ;	Boot Block Code Protection bit
  6523                           ;	CPB = 0x1, unprogrammed default
  6524                           ;	Data EEPROM Code Protection bit
  6525                           ;	CPD = 0x1, unprogrammed default
  6526  300009                     	org	3145737
  6527  300009  C0                 	db	192
  6528                           
  6529                           ;Config register CONFIG6L @ 0x30000A
  6530                           ;	unspecified, using default values
  6531                           ;	Write Protection bit
  6532                           ;	WRT0 = 0x1, unprogrammed default
  6533                           ;	Write Protection bit
  6534                           ;	WRT1 = 0x1, unprogrammed default
  6535                           ;	Write Protection bit
  6536                           ;	WRT2 = 0x1, unprogrammed default
  6537                           ;	Write Protection bit
  6538                           ;	WRT3 = 0x1, unprogrammed default
  6539  30000A                     	org	3145738
  6540  30000A  0F                 	db	15
  6541                           
  6542                           ;Config register CONFIG6H @ 0x30000B
  6543                           ;	unspecified, using default values
  6544                           ;	Configuration Register Write Protection bit
  6545                           ;	WRTC = 0x1, unprogrammed default
  6546                           ;	Boot Block Write Protection bit
  6547                           ;	WRTB = 0x1, unprogrammed default
  6548                           ;	Data EEPROM Write Protection bit
  6549                           ;	WRTD = 0x1, unprogrammed default
  6550  30000B                     	org	3145739
  6551  30000B  E0                 	db	224
  6552                           
  6553                           ;Config register CONFIG7L @ 0x30000C
  6554                           ;	unspecified, using default values
  6555                           ;	Table Read Protection bit
  6556                           ;	EBTR0 = 0x1, unprogrammed default
  6557                           ;	Table Read Protection bit
  6558                           ;	EBTR1 = 0x1, unprogrammed default
  6559                           ;	Table Read Protection bit
  6560                           ;	EBTR2 = 0x1, unprogrammed default
  6561                           ;	Table Read Protection bit
  6562                           ;	EBTR3 = 0x1, unprogrammed default
  6563  30000C                     	org	3145740
  6564  30000C  0F                 	db	15
  6565                           
  6566                           ;Config register CONFIG7H @ 0x30000D
  6567                           ;	unspecified, using default values
  6568                           ;	Boot Block Table Read Protection bit
  6569                           ;	EBTRB = 0x1, unprogrammed default
  6570  30000D                     	org	3145741
  6571  30000D  40                 	db	64
  6572                           tosu	equ	0xFFF
  6573                           tosh	equ	0xFFE
  6574                           tosl	equ	0xFFD
  6575                           stkptr	equ	0xFFC
  6576                           pclatu	equ	0xFFB
  6577                           pclath	equ	0xFFA
  6578                           pcl	equ	0xFF9
  6579                           tblptru	equ	0xFF8
  6580                           tblptrh	equ	0xFF7
  6581                           tblptrl	equ	0xFF6
  6582                           tablat	equ	0xFF5
  6583                           prodh	equ	0xFF4
  6584                           prodl	equ	0xFF3
  6585                           indf0	equ	0xFEF
  6586                           postinc0	equ	0xFEE
  6587                           postdec0	equ	0xFED
  6588                           preinc0	equ	0xFEC
  6589                           plusw0	equ	0xFEB
  6590                           fsr0h	equ	0xFEA
  6591                           fsr0l	equ	0xFE9
  6592                           wreg	equ	0xFE8
  6593                           indf1	equ	0xFE7
  6594                           postinc1	equ	0xFE6
  6595                           postdec1	equ	0xFE5
  6596                           preinc1	equ	0xFE4
  6597                           plusw1	equ	0xFE3
  6598                           fsr1h	equ	0xFE2
  6599                           fsr1l	equ	0xFE1
  6600                           bsr	equ	0xFE0
  6601                           indf2	equ	0xFDF
  6602                           postinc2	equ	0xFDE
  6603                           postdec2	equ	0xFDD
  6604                           preinc2	equ	0xFDC
  6605                           plusw2	equ	0xFDB
  6606                           fsr2h	equ	0xFDA
  6607                           fsr2l	equ	0xFD9
  6608                           status	equ	0xFD8

Data Sizes:
    Strings     164
    Constant    1499
    Data        37
    BSS         29
    Persistent  4
    Stack       0

Auto Spaces:
    Space          Size  Autos    Used
    COMRAM           95     87      95
    BANK0           160      0      62
    BANK1           256      0       0
    BANK2           256      0       0
    BANK3           256      0       0
    BANK4           256      0       0
    BANK5           256      0       0
    BANK6           256      0       0
    BANK7           256      0       0

Pointer List with Targets:

    GLCD_DisplayLogo@ptr_Logo	PTR const unsigned char  size(3) Largest target is 32767
		 -> ROM(CODE[32767]), 

    GLCD_Printf@str	PTR unsigned char  size(2) Largest target is 1
		 -> ?_GLCD_Printf(COMRAM[1]), 

    GLCD_Printf@argList	PTR const unsigned char  size(2) Largest target is 21
		 -> STR_18(CODE[15]), STR_17(CODE[20]), STR_16(CODE[21]), STR_15(CODE[19]), 
		 -> STR_14(CODE[17]), STR_13(CODE[15]), STR_12(CODE[17]), STR_11(CODE[2]), 
		 -> STR_10(CODE[4]), STR_9(CODE[10]), STR_8(CODE[3]), STR_7(CODE[3]), 
		 -> STR_6(CODE[3]), STR_5(CODE[3]), STR_4(CODE[8]), STR_3(CODE[3]), 
		 -> STR_2(CODE[7]), STR_1(CODE[8]), 

    GLCD_Printf@ptr	PTR const unsigned char  size(2) Largest target is 21
		 -> STR_18(CODE[15]), STR_17(CODE[20]), STR_16(CODE[21]), STR_15(CODE[19]), 
		 -> STR_14(CODE[17]), STR_13(CODE[15]), STR_12(CODE[17]), STR_11(CODE[2]), 
		 -> STR_10(CODE[4]), STR_9(CODE[10]), STR_8(CODE[3]), STR_7(CODE[3]), 
		 -> STR_6(CODE[3]), STR_5(CODE[3]), STR_4(CODE[8]), STR_3(CODE[3]), 
		 -> STR_2(CODE[7]), STR_1(CODE[8]), 

    GLCD_Printf@argp	PTR void [1] size(2) Largest target is 1
		 -> ?_GLCD_Printf(COMRAM[1]), 

    GLCD_DisplayString@ptr	PTR unsigned char  size(2) Largest target is 1
		 -> ?_GLCD_Printf(COMRAM[1]), 


Critical Paths under _main in COMRAM

    _main->_tapas
    _tapas->_GLCD_Printf
    _reset->_GLCD_Printf
    _GLCD_SetCursor->___awdiv
    _GLCD_Printf->_GLCD_DisplayNumber
    _GLCD_DisplayString->_GLCD_DisplayChar
    _GLCD_DisplayNumber->___lldiv
    _GLCD_DisplayChar->_GLCD_GoToPage
    _GLCD_GoToNextLine->_GLCD_GoToPage
    _GLCD_Init->_GLCD_Clear
    _GLCD_Clear->_GLCD_GoToLine
    _GLCD_GoToLine->_GLCD_GoToPage
    _GLCD_GoToPage->_glcd_CmdWrite
    _DELAY_ms->_DELAY_us
    _GLCD_DisplayLogo->_glcd_CmdWrite
    _GLCD_DisplayLogo->_glcd_DataWrite
    _glcd_CmdWrite->_DELAY_us
    _glcd_BusyCheck->_DELAY_us

Critical Paths under _main in BANK0

    None.

Critical Paths under _main in BANK1

    None.

Critical Paths under _main in BANK2

    None.

Critical Paths under _main in BANK3

    None.

Critical Paths under _main in BANK4

    None.

Critical Paths under _main in BANK5

    None.

Critical Paths under _main in BANK6

    None.

Critical Paths under _main in BANK7

    None.

Call Graph Tables:

 ---------------------------------------------------------------------------------
 (Depth) Function   	        Calls       Base Space   Used Autos Params    Refs
 ---------------------------------------------------------------------------------
 (0) _main                                                12    12      0   46950
                                             75 COMRAM    12    12      0
                         _GLCD_Clear
                   _GLCD_DisplayLogo
                          _GLCD_Init
                        _GLCD_Printf
                     _GLCD_SetCursor
                             ___wmul
                             _column
                              _reset
                                _row
                              _tapas
 ---------------------------------------------------------------------------------
 (1) _tapas                                                8     0      8   13737
                                             67 COMRAM     8     0      8
                        _GLCD_Printf
                     _GLCD_SetCursor
 ---------------------------------------------------------------------------------
 (1) _row                                                  4     2      2      98
                                              0 COMRAM     4     2      2
 ---------------------------------------------------------------------------------
 (1) _reset                                                2     2      0   13291
                                             67 COMRAM     2     2      0
                        _GLCD_Printf
                     _GLCD_SetCursor
 ---------------------------------------------------------------------------------
 (2) _GLCD_SetCursor                                       3     2      1    2970
                                              8 COMRAM     3     2      1
                            ___awdiv
                            ___awmod
                      _glcd_CmdWrite
                   _glcd_SelectPage0
                   _glcd_SelectPage1
 ---------------------------------------------------------------------------------
 (3) ___awmod                                              6     2      4     448
                                              0 COMRAM     6     2      4
 ---------------------------------------------------------------------------------
 (3) ___awdiv                                              8     4      4     756
                                              0 COMRAM     8     4      4
 ---------------------------------------------------------------------------------
 (2) _GLCD_Printf                                         26    20      6   10253
                                             41 COMRAM    26    20      6
                   _GLCD_DisplayChar
                 _GLCD_DisplayNumber
                 _GLCD_DisplayString
 ---------------------------------------------------------------------------------
 (3) _GLCD_DisplayString                                   2     0      2    1776
                                              9 COMRAM     2     0      2
                   _GLCD_DisplayChar
 ---------------------------------------------------------------------------------
 (3) _GLCD_DisplayNumber                                  28    23      5    4363
                                             13 COMRAM    28    23      5
                   _GLCD_DisplayChar
                            ___lldiv
 ---------------------------------------------------------------------------------
 (4) ___lldiv                                             13     5      8     466
                                              0 COMRAM    13     5      8
 ---------------------------------------------------------------------------------
 (4) _GLCD_DisplayChar                                     5     5      0    1655
                                              4 COMRAM     5     5      0
                  _GLCD_GoToNextLine
                      _GLCD_GoToPage
                     _glcd_DataWrite
 ---------------------------------------------------------------------------------
 (5) _GLCD_GoToNextLine                                    0     0      0     612
                      _GLCD_GoToPage
 ---------------------------------------------------------------------------------
 (1) _column                                               2     0      2       0
                                              0 COMRAM     2     0      2
 ---------------------------------------------------------------------------------
 (1) ___wmul                                               6     2      4     447
                                              0 COMRAM     6     2      4
 ---------------------------------------------------------------------------------
 (1) _GLCD_Init                                            0     0      0    3173
                           _DELAY_ms
                         _GLCD_Clear
                      _GLCD_GoToPage
                      _glcd_CmdWrite
                   _glcd_SelectPage0
                   _glcd_SelectPage1
 ---------------------------------------------------------------------------------
 (2) _GLCD_Clear                                           2     2      0    1611
                                              5 COMRAM     2     2      0
                      _GLCD_GoToLine
                      _glcd_CmdWrite
                     _glcd_DataWrite
                   _glcd_SelectPage0
                   _glcd_SelectPage1
 ---------------------------------------------------------------------------------
 (3) _GLCD_GoToLine                                        1     1      0     656
                                              4 COMRAM     1     1      0
                      _GLCD_GoToPage
 ---------------------------------------------------------------------------------
 (5) _GLCD_GoToPage                                        1     1      0     612
                                              3 COMRAM     1     1      0
                      _glcd_CmdWrite
                   _glcd_SelectPage0
                   _glcd_SelectPage1
 ---------------------------------------------------------------------------------
 (2) _DELAY_ms                                             2     0      2     426
                                              2 COMRAM     2     0      2
                           _DELAY_us
 ---------------------------------------------------------------------------------
 (1) _GLCD_DisplayLogo                                     5     2      3    1054
                                              3 COMRAM     5     2      3
                      _glcd_CmdWrite
                     _glcd_DataWrite
                   _glcd_SelectPage0
                   _glcd_SelectPage1
 ---------------------------------------------------------------------------------
 (3) _glcd_SelectPage1                                     0     0      0       0
 ---------------------------------------------------------------------------------
 (3) _glcd_SelectPage0                                     0     0      0       0
 ---------------------------------------------------------------------------------
 (5) _glcd_DataWrite                                       1     1      0     273
                                              2 COMRAM     1     1      0
                     _glcd_BusyCheck
 ---------------------------------------------------------------------------------
 (3) _glcd_CmdWrite                                        1     1      0     524
                                              2 COMRAM     1     1      0
                           _DELAY_us
                     _glcd_BusyCheck
 ---------------------------------------------------------------------------------
 (4) _glcd_BusyCheck                                       0     0      0     251
                           _DELAY_us
 ---------------------------------------------------------------------------------
 (5) _DELAY_us                                             2     0      2     251
                                              0 COMRAM     2     0      2
 ---------------------------------------------------------------------------------
 Estimated maximum stack depth 5
 ---------------------------------------------------------------------------------

 Call Graph Graphs:

 _main (ROOT)
   _GLCD_Clear
     _GLCD_GoToLine
       _GLCD_GoToPage
         _glcd_CmdWrite
           _DELAY_us
           _glcd_BusyCheck
             _DELAY_us
         _glcd_SelectPage0
         _glcd_SelectPage1
     _glcd_CmdWrite
       _DELAY_us
       _glcd_BusyCheck
         _DELAY_us
     _glcd_DataWrite
       _glcd_BusyCheck
         _DELAY_us
     _glcd_SelectPage0
     _glcd_SelectPage1
   _GLCD_DisplayLogo
     _glcd_CmdWrite
       _DELAY_us
       _glcd_BusyCheck
         _DELAY_us
     _glcd_DataWrite
       _glcd_BusyCheck
         _DELAY_us
     _glcd_SelectPage0
     _glcd_SelectPage1
   _GLCD_Init
     _DELAY_ms
       _DELAY_us
     _GLCD_Clear
       _GLCD_GoToLine
         _GLCD_GoToPage
           _glcd_CmdWrite
             _DELAY_us
             _glcd_BusyCheck
               _DELAY_us
           _glcd_SelectPage0
           _glcd_SelectPage1
       _glcd_CmdWrite
         _DELAY_us
         _glcd_BusyCheck
           _DELAY_us
       _glcd_DataWrite
         _glcd_BusyCheck
           _DELAY_us
       _glcd_SelectPage0
       _glcd_SelectPage1
     _GLCD_GoToPage
       _glcd_CmdWrite
         _DELAY_us
         _glcd_BusyCheck
           _DELAY_us
       _glcd_SelectPage0
       _glcd_SelectPage1
     _glcd_CmdWrite
       _DELAY_us
       _glcd_BusyCheck
         _DELAY_us
     _glcd_SelectPage0
     _glcd_SelectPage1
   _GLCD_Printf
     _GLCD_DisplayChar
       _GLCD_GoToNextLine
         _GLCD_GoToPage
           _glcd_CmdWrite
             _DELAY_us
             _glcd_BusyCheck
               _DELAY_us
           _glcd_SelectPage0
           _glcd_SelectPage1
       _GLCD_GoToPage
         _glcd_CmdWrite
           _DELAY_us
           _glcd_BusyCheck
             _DELAY_us
         _glcd_SelectPage0
         _glcd_SelectPage1
       _glcd_DataWrite
         _glcd_BusyCheck
           _DELAY_us
     _GLCD_DisplayNumber
       _GLCD_DisplayChar
         _GLCD_GoToNextLine
           _GLCD_GoToPage
             _glcd_CmdWrite
               _DELAY_us
               _glcd_BusyCheck
                 _DELAY_us
             _glcd_SelectPage0
             _glcd_SelectPage1
         _GLCD_GoToPage
           _glcd_CmdWrite
             _DELAY_us
             _glcd_BusyCheck
               _DELAY_us
           _glcd_SelectPage0
           _glcd_SelectPage1
         _glcd_DataWrite
           _glcd_BusyCheck
             _DELAY_us
       ___lldiv
     _GLCD_DisplayString
       _GLCD_DisplayChar
         _GLCD_GoToNextLine
           _GLCD_GoToPage
             _glcd_CmdWrite
               _DELAY_us
               _glcd_BusyCheck
                 _DELAY_us
             _glcd_SelectPage0
             _glcd_SelectPage1
         _GLCD_GoToPage
           _glcd_CmdWrite
             _DELAY_us
             _glcd_BusyCheck
               _DELAY_us
           _glcd_SelectPage0
           _glcd_SelectPage1
         _glcd_DataWrite
           _glcd_BusyCheck
             _DELAY_us
   _GLCD_SetCursor
     ___awdiv
     ___awmod
     _glcd_CmdWrite
       _DELAY_us
       _glcd_BusyCheck
         _DELAY_us
     _glcd_SelectPage0
     _glcd_SelectPage1
   ___wmul
   _column
   _reset
     _GLCD_Printf
       _GLCD_DisplayChar
         _GLCD_GoToNextLine
           _GLCD_GoToPage
             _glcd_CmdWrite
               _DELAY_us
               _glcd_BusyCheck
                 _DELAY_us
             _glcd_SelectPage0
             _glcd_SelectPage1
         _GLCD_GoToPage
           _glcd_CmdWrite
             _DELAY_us
             _glcd_BusyCheck
               _DELAY_us
           _glcd_SelectPage0
           _glcd_SelectPage1
         _glcd_DataWrite
           _glcd_BusyCheck
             _DELAY_us
       _GLCD_DisplayNumber
         _GLCD_DisplayChar
           _GLCD_GoToNextLine
             _GLCD_GoToPage
               _glcd_CmdWrite
                 _DELAY_us
                 _glcd_BusyCheck
                   _DELAY_us
               _glcd_SelectPage0
               _glcd_SelectPage1
           _GLCD_GoToPage
             _glcd_CmdWrite
               _DELAY_us
               _glcd_BusyCheck
                 _DELAY_us
             _glcd_SelectPage0
             _glcd_SelectPage1
           _glcd_DataWrite
             _glcd_BusyCheck
               _DELAY_us
         ___lldiv
       _GLCD_DisplayString
         _GLCD_DisplayChar
           _GLCD_GoToNextLine
             _GLCD_GoToPage
               _glcd_CmdWrite
                 _DELAY_us
                 _glcd_BusyCheck
                   _DELAY_us
               _glcd_SelectPage0
               _glcd_SelectPage1
           _GLCD_GoToPage
             _glcd_CmdWrite
               _DELAY_us
               _glcd_BusyCheck
                 _DELAY_us
             _glcd_SelectPage0
             _glcd_SelectPage1
           _glcd_DataWrite
             _glcd_BusyCheck
               _DELAY_us
     _GLCD_SetCursor
       ___awdiv
       ___awmod
       _glcd_CmdWrite
         _DELAY_us
         _glcd_BusyCheck
           _DELAY_us
       _glcd_SelectPage0
       _glcd_SelectPage1
   _row
   _tapas
     _GLCD_Printf
       _GLCD_DisplayChar
         _GLCD_GoToNextLine
           _GLCD_GoToPage
             _glcd_CmdWrite
               _DELAY_us
               _glcd_BusyCheck
                 _DELAY_us
             _glcd_SelectPage0
             _glcd_SelectPage1
         _GLCD_GoToPage
           _glcd_CmdWrite
             _DELAY_us
             _glcd_BusyCheck
               _DELAY_us
           _glcd_SelectPage0
           _glcd_SelectPage1
         _glcd_DataWrite
           _glcd_BusyCheck
             _DELAY_us
       _GLCD_DisplayNumber
         _GLCD_DisplayChar
           _GLCD_GoToNextLine
             _GLCD_GoToPage
               _glcd_CmdWrite
                 _DELAY_us
                 _glcd_BusyCheck
                   _DELAY_us
               _glcd_SelectPage0
               _glcd_SelectPage1
           _GLCD_GoToPage
             _glcd_CmdWrite
               _DELAY_us
               _glcd_BusyCheck
                 _DELAY_us
             _glcd_SelectPage0
             _glcd_SelectPage1
           _glcd_DataWrite
             _glcd_BusyCheck
               _DELAY_us
         ___lldiv
       _GLCD_DisplayString
         _GLCD_DisplayChar
           _GLCD_GoToNextLine
             _GLCD_GoToPage
               _glcd_CmdWrite
                 _DELAY_us
                 _glcd_BusyCheck
                   _DELAY_us
               _glcd_SelectPage0
               _glcd_SelectPage1
           _GLCD_GoToPage
             _glcd_CmdWrite
               _DELAY_us
               _glcd_BusyCheck
                 _DELAY_us
             _glcd_SelectPage0
             _glcd_SelectPage1
           _glcd_DataWrite
             _glcd_BusyCheck
               _DELAY_us
     _GLCD_SetCursor
       ___awdiv
       ___awmod
       _glcd_CmdWrite
         _DELAY_us
         _glcd_BusyCheck
           _DELAY_us
       _glcd_SelectPage0
       _glcd_SelectPage1

 Address spaces:
Name               Size   Autos  Total    Cost      Usage
BIGRAM             7FF      0       0      21        0.0%
EEDATA             100      0       0       0        0.0%
BITBANK7           100      0       0      18        0.0%
BANK7              100      0       0      19        0.0%
BITBANK6           100      0       0      16        0.0%
BANK6              100      0       0      17        0.0%
BITBANK5           100      0       0      14        0.0%
BANK5              100      0       0      15        0.0%
BITBANK4           100      0       0      12        0.0%
BANK4              100      0       0      13        0.0%
BITBANK3           100      0       0      10        0.0%
BANK3              100      0       0      11        0.0%
BITBANK2           100      0       0       8        0.0%
BANK2              100      0       0       9        0.0%
BITBANK1           100      0       0       6        0.0%
BANK1              100      0       0       7        0.0%
BITBANK0            A0      0       0       4        0.0%
BANK0               A0      0      3E       5       38.8%
BITCOMRAM           5F      0       0       0        0.0%
COMRAM              5F     57      5F       1      100.0%
BITSFR               0      0       0     200        0.0%
SFR                  0      0       0     200        0.0%
STACK                0      0       0       2        0.0%
NULL                 0      0       0       0        0.0%
ABS                  0      0      9D      20        0.0%
DATA                 0      0      9D       3        0.0%
CODE                 0      0       0       0        0.0%


Microchip Technology PIC18 Macro Assembler V2.31 build 20201012212115 
Symbol Table                                                                                   Tue Jun 08 02:16:55 2021

                          ?_glcd_SelectPage0 0001                            ?_glcd_SelectPage1 0001  
                               ___awdiv@sign 0006                                           _v1 0098  
                                         _nC 0072                                           _pA 005F  
                                         _pB 0099                           ??_glcd_SelectPage0 0001  
                         ??_glcd_SelectPage1 0001                                           _xM 0094  
                                         _sX 0076                                           _sY 0074  
                                         _yM 0092                          ___wmul@multiplicand 0003  
                                        l113 7930                                          l220 6CB8  
                                        l301 67CA                                          l125 6700  
                                        l206 675A                                          l143 6F0A  
                                        l160 681A                                          l313 655C  
                                        l226 6600                                          l331 6932  
                                        l155 67E6                                          l323 69BA  
                                        l156 683C                                          l148 68AE  
                                        l309 6654                                          l317 651C  
                                        l158 6800                                          l422 6A4E  
                                        l263 721E                                          l360 653C  
                                        l257 716C                                          l273 752A  
                                        l363 64E0                                          l372 64C8  
                                        l429 6A5E                                          l293 7554  
                                        l269 7224                                          l366 64B4  
                                        l384 65D0                                          l369 64BA  
                                        l378 64FE                                          l626 6BD2  
                                        l395 65A6                                          l639 6B0E  
                                        _LDR 0084                                          _ayM 005C  
                                        _xSC 009C                                          _ySC 009A  
                                        _row 683E                                 ___awmod@sign 0006  
                                        wreg 000FE8                       GLCD_DisplayLogo@cursor 0007  
                         __size_of_GLCD_Init 005A                                         l2000 64EC  
                                       l2002 64BC                                         l2010 6528  
                                       l2012 652A                                         l2004 64B0  
                                       l2020 6604                                         l2100 69EA  
                                       l2014 652C                                         l2006 6520  
                                       l2030 6640                                         l2022 6614  
                                       l2110 6A3C                                         l2102 69F6  
                                       l2016 652E                                         l2008 6524  
                                       l2032 6644                                         l2024 6624  
                                       l2040 6502                                         l2112 6A3E  
                                       l2104 6A04                                         l2120 65E4  
                                       l2200 6B44                                         l2050 64D6  
                                       l2018 64B6                                         l2034 6648  
                                       l2026 6634                                         l2042 6512  
                                       l2114 6A48                                         l2106 6A0E  
                                       l2130 6F24                                         l2122 65E8  
                                       l2210 6B72                                         l2202 6B48  
                                       l2052 64D8                                         l2036 664E  
                                       l2028 663C                                         l2044 6516  
                                       l2060 6BD6                                         l2108 6A2C  
                                       l2140 6FB4                                         l2132 6F80  
                                       l2124 6F0E                                         l2116 65D2  
                                       l2300 71B4                                         l2220 6BA6  
                                       l2212 6B80                                         l2204 6B50  
                                       l2054 64DA                                         l2046 64CC  
                                       l2038 6500                                         l2070 6C2A  
                                       l2062 6BDA                                         l2142 6FBC  
                                       l2150 6FEA                                         l2134 6F88  
                                       l2126 6F0E                                         l2118 65D6  
                                       l2310 71EC                                         l2302 71C4  
                                       l2222 6BAC                                         l2214 6B86  
                                       l2206 6B62                                         l2056 64DC  
                                       l2048 64D0                                         l2080 6C6A  
                                       l2072 6C3C                                         l2064 6BEA  
                                       l2160 707E                                         l2152 6FF2  
                                       l2144 6FC2                                         l2136 6F8A  
                                       l2320 723C                                         l2400 7498  
                                       l2312 71FA                                         l2304 71D4  
                                       l2216 6B9C                                         l2208 6B6A  
                                       l2224 6BB2                                         l2240 6A7E  
                                       l2232 6A60                                         l2058 64DE  
                                       l2090 6CB0                                         l2082 6C94  
                                       l2074 6C42                                         l2066 6C14  
                                       l2170 70BA                                         l2154 7008  
                                       l2146 6FC4                                         l2138 6F9E  
                                       l2330 7274                                         l2322 7246  
                                       l2314 720A                                         l2306 71DC  
                                       l2402 752E                                         l2226 6BC2  
                                       l2218 6BA4                                         l2250 6AB6  
                                       l2242 6A8C                                         l2234 6A64  
                                       l2500 68BE                                         l2420 6764  
                                       l2412 675C                                         l2092 6CB6  
                                       l2084 6C9A                                         l2076 6C52  
                                       l2068 6C26                                         l2172 70EC  
                                       l2164 7092                                         l2180 715C  
                                       l2156 703C                                         l2148 6FD6  
                                       l2340 72C0                                         l2332 727A  
                                       l2324 7256                                         l2404 7534  
                                       l2316 7228                                         l2308 71E8  
                                       l2228 6BCA                                         l2252 6AC4  
                                       l2260 6AEE                                         l2244 6A94  
                                       l2236 6A72                                         l2510 68DC  
                                       l2502 68C6                                         l2182 6540  
                                       l2430 6776                                         l2422 676A  
                                       l2086 6C9C                                         l2078 6C64  
                                       l2094 69BC                                         l2174 7122  
                                       l2166 70A2                                         l2158 706E  
                                       l2350 7306                                         l2342 72C8  
                                       l2334 729A                                         l2326 725E  
                                       l2318 7234                                         l2406 7538  
                                       l2190 6B14                                         l2262 6AFE  
                                       l2254 6ADA                                         l2246 6AA6  
                                       l2238 6A7A                                         l2270 6946  
                                       l2520 690E                                         l2512 68E0  
                                       l2184 6550                                         l2440 67A0  
                                       l2432 6788                                         l2424 6772  
                                       l2088 6C9E                                         l2096 69CC  
                                       l2176 7154                                         l2168 70A4  
                                       l2360 736E                                         l2352 7320  
                                       l2344 72CE                                         l2336 72AA  
                                       l2328 726C                                         l2192 6B22  
                                       l2264 6B06                                         l2256 6AE2  
                                       l2248 6AAE                                         l2280 699E  
                                       l2272 6956                                         l2522 6910  
                                       l2514 68E6                                         l2450 65AC  
                                       l2186 6556                                         l2442 67B2  
                                       l2434 678C                                         l2418 6760  
                                       l2610 6828                                         l2098 69E2  
                                       l2178 715A                                         l2370 73CE  
                                       l2362 7376                                         l2354 7338  
                                       l2346 72EE                                         l2338 72B2  
                                       l2290 716E                                         l2194 6B2A  
                                       l2258 6AE8                                         l2282 69A2  
                                       l2274 6982                                         l2530 6CC4  
                                       l2524 6920                                         l2516 68EE  
                                       l2508 68CA                                         l2452 65B8  
                                       l2444 67B4                                         l2436 6792  
                                       l2460 670A                                         l2604 680E  
                                       l2380 7414                                         l2372 73DE  
                                       l2364 7390                                         l2356 7340  
                                       l2348 72FE                                         l2292 7182  
                                       l2196 6B2E                                         l2188 6B10  
                                       l2284 69A8                                         l2276 6992  
                                       l2268 6936                                         l2620 683E  
                                       l2540 6D44                                         l2532 6CE6  
                                       l2700 7618                                         l2526 6922  
                                       l2518 6902                                         l2454 65BE  
                                       l2446 67C4                                         l2438 679A  
                                       l2470 672A                                         l2462 670E  
                                       l2390 7466                                         l2382 742C  
                                       l2374 73E6                                         l2366 73A8  
                                       l2358 735E                                         l2294 7190  
                                       l2198 6B3C                                         l2286 69AE  
                                       l2278 699A                                         l2622 6842  
                                       l2550 6DAA                                         l2542 6D50  
                                       l2534 6CF2                                         l2710 7656  
                                       l2702 763C                                         l2448 65A8  
                                       l2480 6744                                         l2472 672E  
                                       l2464 6714                                         l2456 6702  
                                       l2616 6834                                         l2392 7476  
                                       l2384 7434                                         l2376 73F6  
                                       l2368 73B0                                         l2296 71A2  
                                       l2288 69B4                                         l2640 6866  
                                       l2560 6E10                                         l2552 6DB6  
                                       l2544 6D5A                                         l2536 6D00  
                                       l2528 6CBA                                         l2800 78F0  
                                       l2720 7694                                         l2712 7668  
                                       l2704 763E                                         l2490 68B0  
                                       l2482 6748                                         l2474 6734  
                                       l2466 6718                                         l2458 6706  
                                       l2394 747E                                         l2386 7444  
                                       l2378 73FA                                         l2298 71A6  
                                       l2634 685A                                         l2570 6E76  
                                       l2562 6E1C                                         l2554 6DC0  
                                       l2538 6D22                                         l2546 6D66  
                                       l2810 7942                                         l2802 7904  
                                       l2730 771E                                         l2722 76AE  
                                       l2714 7676                                         l2706 7646  
                                       l2484 674C                                         l2476 6738  
                                       l2468 671E                                         l2396 748E  
                                       l2388 7448                                         l2660 66B2  
                                       l2628 684E                                         l2580 6ED8  
                                       l2572 6E82                                         l2564 6E26  
                                       l2548 6D88                                         l2556 6DCC  
                                       l2812 7948                                         l2804 7912  
                                       l2740 7750                                         l2732 7728  
                                       l2724 76CC                                         l2716 767E  
                                       l2708 764A                                         l2486 6750  
                                       l2478 673E                                         l2590 67CC  
                                       l2670 66E4                                         l2662 66C2  
                                       l2654 66AA                                         l2582 6EE4  
                                       l2574 6E8C                                         l2558 6DEE  
                                       l2566 6E32                                         l2814 794E  
                                       l2806 7920                                         l2750 7798  
                                       l2734 7730                                         l2726 76D6  
                                       l2718 7688                                         l2496 68B4  
                                       l2488 6754                                         l2672 6582  
                                       l2592 67DA                                         l2664 66CE  
                                       l2648 6872                                         l2584 6EEE  
                                       l2568 6E54                                         l2576 6E98  
                                       l2816 796A                                         l2808 793E  
                                       l2736 7740                                         l2728 770C  
                                       l2744 776A                                         l2680 7570  
                                       l2498 68B8                                         l2674 659E  
                                       l2666 66D8                                         l2578 6EB8  
                                       l2586 6EFA                                         l2770 780C  
                                       l2762 77A8                                         l2746 7786  
                                       l2738 7744                                         l2690 75BA  
                                       l2682 757E                                         l2668 66E0  
                                       l2780 7858                                         l2772 781E  
                                       l2764 77DC                                         l2756 77A0  
                                       l2748 778E                                         l2692 75BC  
                                       l2684 7582                                         l2598 67F4  
                                       l2950 6888                                         l2790 78A6  
                                       l2774 782A                                         l2782 7874  
                                       l2766 77EC                                         l2694 75CA  
                                       l2686 75A4                                         l2678 7556  
                                       l2952 74AC                                         l2792 78AA  
                                       l2784 787E                                         l2776 7834  
                                       l2768 7808                                         l2696 75F2  
                                       l2688 75B2                                         l2794 78C6  
                                       l2786 7890                                         l2778 7846  
                                       l2698 75FC                                         l1996 64E2  
                                       l2796 78CA                                         l1998 64E6  
                                       l2798 78E6                                         ?_row 0001  
                                       STR_1 7FE0                                         STR_2 7FF0  
                                       STR_3 7FFB                                         STR_4 7FE8  
                                       STR_5 7FFB                                         STR_6 7FFB  
                                       STR_7 7FFB                                         STR_8 7FFB  
                                       STR_9 7FD6                                         _GLCD 0058  
                                       u1100 6634                                         u1101 6630  
                                       u1110 6512                                         u1111 650E  
                                       u1120 6BEA                                         u1200 6A04  
                                       u1121 6BE6                                         u1201 6A00  
                                       u1130 6C14                                         u1210 6A2C  
                                       u1131 6C10                                         u1211 6A28  
                                       u1140 6C26                                         u1300 6FE6  
                                       u1220 6600                                         u1141 6C22  
                                       u1301 6FE2                                         u1221 65FC  
                                       u1070 64FE                                         u1150 6C3C  
                                       u1310 7008                                         u1230 6F20  
                                       u1071 64FA                                         u1151 6C38  
                                       u1311 7004                                         u1231 6F1C  
                                       u1080 6614                                         u1160 6C52  
                                       u1320 707E                                         u1240 6F46  
                                       u1400 6B62                                         u1081 6610  
                                       u1161 6C4E                                         u1321 707A  
                                       u1401 6B5E                                         u1090 6624  
                                       u1170 6C64                                         u1330 708E  
                                       u1250 6F7C                                         u1410 6B80  
                                       u1091 6620                                         u1171 6C60  
                                       u1331 708A                                         u1251 6F76  
                                       u1411 6B7C                                         u1180 6CB0  
                                       u1340 70B6                                         u1260 6F7E  
                                       u1420 6B9C                                         u1500 6946  
                                       u1181 6CAC                                         u1341 70B2  
                                       u1245 6F3C                                         u1421 6B98  
                                       u1501 6942                                         u1190 69E2  
                                       u1350 70EC                                         u1270 6F9A  
                                       u1430 6BC2                                         u1510 6956  
                                       u1191 69DE                                         u1351 70E8  
                                       u1271 6F96                                         u1431 6BBE  
                                       u1511 6952                                         u1360 716C  
                                       u1280 6FB4                                         u1600 73F6  
                                       u1440 6A72                                         u1520 6992  
                                       u1361 7168                                         u1281 6FB0  
                                       u1601 73F2                                         u1441 6A6E  
                                       u1521 698E                                         u2137 7862  
                                       u1370 6550                                         u1290 6FD6  
                                       u1610 7444                                         u1530 71A2  
                                       u1450 6A8C                                         u1371 654C  
                                       u1291 6FD2                                         u1611 7440  
                                       u1531 719E                                         u1451 6A88  
                                       u1620 7554                                         u1540 71C4  
                                       u1380 6B22                                         u1460 6AA6  
                                       u1700 6CE6                                         u1621 7550  
                                       u1541 71C0                                         u1381 6B1E  
                                       u1461 6AA2                                         u1701 6CE2  
                                       u1630 6788                                         u1550 71D4  
                                       u1390 6B3C                                         u1470 6AC4  
                                       u1710 6D22                                         u1631 6784  
                                       u1551 71D0                                         u1391 6B38  
                                       u1471 6AC0                                         u1711 6D1E  
                                       u1640 67B2                                         u1560 720A  
                                       u1480 6ADA                                         u1800 6ED8  
                                       u1720 6D44                                         u1641 67AE  
                                       u1561 7206                                         u1481 6AD6  
                                       u1801 6ED4                                         u1721 6D40  
                                       u1650 67C4                                         u1810 67DA  
                                       u1570 721A                                         u1490 6AFE  
                                       u1730 6D88                                         u1651 67C0  
                                       u1811 67D6                                         u1571 7216  
                                       u1491 6AFA                                         u1731 6D84  
                                       u1660 65D0                                         u1820 67F4  
                                       u1580 726C                                         u1740 6DAA  
                                       u1900 776A                                         u1661 65CC  
                                       u1821 67F0                                         u1581 7268  
                                       u1741 6DA6                                         u1901 7766  
                                       u1670 68DC                                         u1830 680E  
                                       u1590 72C0                                         u1750 6DEE  
                                       u1910 7786                                         u1671 68D8  
                                       u1831 680A                                         u1591 72BC  
                                       u1751 6DEA                                         u1911 7782  
                                       u1680 6920                                         u1840 6828  
                                       u1760 6E10                                         u1920 7808  
                                       u1681 691C                                         u1841 6824  
                                       u1761 6E0C                                         u1921 7804  
                                       u1690 6932                                         u1850 6700  
                                       u1770 6E54                                         u1930 781E  
                                       u1691 692E                                         u1851 66FC  
                                       u1771 6E50                                         u1931 781A  
                                       u1780 6E76                                         u1940 78C6  
                                       u1860 75B2                                         u1781 6E72  
                                       u1941 78C2                                         u1861 75AE  
                                       u1790 6EB8                                         u1950 78E6  
                                       u1870 75CA                                         u1791 6EB4  
                                       u1951 78E2                                         u1871 75C6  
                                       u1960 7912                                         u1880 76AE  
                                       u1961 790E                                         u1881 76AA  
                                       u1970 793E                                         u1890 76CC  
                                       u1971 793A                                         u1891 76C8  
                                       u1980 796A                                         u1981 7966  
                                       _comb 0060                                         _cond 0090  
                                       _main 7556                                         _valM 005E  
                                       _prod 0078                                         fsr2h 000FDA  
                                       indf2 000FDF                                         fsr1l 000FE1  
                                       fsr2l 000FD9                                  main@product 0054  
                                       prodh 000FF4                                         prodl 000FF3  
                                       start 0000                             __end_of_DELAY_ms 65D2  
                           __end_of_DELAY_us 6500                                 ___param_bank 000000  
                   __end_of_GLCD_DisplayChar 6CBA                     __end_of_GLCD_DisplayLogo 6934  
                                      ??_row 0003                          __size_of_GLCD_Clear 0070  
                 __end_of_GLCD_DisplayNumber 716E                   __end_of_GLCD_DisplayString 6602  
          GLCD_Printf@v_numOfDigitsToDisp_u8 0041                                        ?_main 0001  
                            __end_of___awdiv 6BD4                                        STR_10 7FF7  
                                      STR_11 7FF5                                        STR_12 7F96  
                                      STR_13 7FB8                                        STR_14 7FA7  
                                      STR_15 7F83                                        STR_16 7F5A  
                                      STR_17 7F6F                                        STR_18 7FC7  
                            __end_of___awmod 6B10                   __end_of_A_GlcdFontTable_U8 7F5A  
                            __end_of___lldiv 6A60                              ___awdiv@divisor 0003  
                            ___awdiv@counter 0005                                        _PORTA 000F80  
                                      _PORTB 000F81                                        _PORTD 000F83  
                                      _TRISA 000F92                                        _TRISB 000F93  
                                      _TRISC 000F94                                        _TRISD 000F95  
                                      _TRISE 000F96                                        _index 0096  
                                      _saldo 008C                                        _tapas 6CBA  
                                      _reset 66AA                                        main@i 0050  
                                      main@p 0055                                        main@x 0052  
                                      main@y 0056                                        tablat 000FF5  
                                      status 000FD8                              __initialization 6656  
                      GLCD_DisplayString@ptr 000A                                 __end_of_main 797E  
                          __end_of_GLCD_Init 675C               GLCD_DisplayNumber@v_number_u32 000E  
                                 _LogoBitMap 797F                                       ??_main 004C  
                            GLCD_Printf@argp 0042                                __activetblptr 000002  
                   GLCD_DisplayLogo@ptr_Logo 0004                         __size_of_GLCD_Printf 03E8  
                                     _ADCON0 000FC2                                       _ADCON1 000FC1  
                                     _ADCON2 000FC0                                       _ADRESH 000FC4  
                                     _ADRESL 000FC3                                       ?_tapas 0044  
                                     ?_reset 0001                             ___awdiv@dividend 0001  
                                     ___wmul 6582                                    ??___awdiv 0005  
                                  ??___awmod 0005                                       _codTec 0088  
                                  ??___lldiv 0009                                       _column 67CC  
                                     clear_0 668E                                       clear_1 669A  
                           ___awdiv@quotient 0007                              ___awmod@divisor 0003  
                            ___awmod@counter 0005                             DELAY_ms@ms_count 0003  
                               __pdataCOMRAM 005F                           GLCD_Printf@argList 002A  
                                     tapas@x 004A                                       tapas@y 0048  
                               __mediumconst 797E                                       reset@i 0044  
                                     tblptrh 000FF7                                       tblptrl 000FF6  
                                     tblptru 000FF8                                    ?_DELAY_ms 0003  
                                  ?_DELAY_us 0001                                 ??_GLCD_Clear 0006  
                                 __accesstop 0060                      __end_of__initialization 66A0  
                      __end_of_GLCD_GoToPage 6656                        __end_of_GLCD_GoToLine 655E  
                          glcd_DataWrite@dat 0003                                ___rparam_used 000001  
                             __pcstackCOMRAM 0001                                 __pidataBANK0 655E  
                    GLCD_GoToPage@pageNumber 0004                                __end_of_tapas 6F0C  
                              __end_of_reset 6702                           __end_of_GLCD_Clear 67CC  
                    __size_of_GLCD_SetCursor 0088                                   ??_DELAY_ms 0005  
                                 ??_DELAY_us 0003                    __size_of_glcd_SelectPage0 0006  
                  __size_of_glcd_SelectPage1 0006                                      ??_tapas 004C  
                                    ??_reset 0044                        __end_of_glcd_CmdWrite 653E  
                                 __pbssBANK0 0084                                      ?___wmul 0001  
                          ?_GLCD_DisplayChar 0001                                      ?_column 0001  
                          ?_GLCD_DisplayLogo 0004                           ??_GLCD_DisplayChar 0005  
                         ??_GLCD_DisplayLogo 0007                      __size_of_glcd_DataWrite 0018  
                         GLCD_DisplayChar@ch 0009                           _GLCD_DisplayNumber 6F0C  
                           DELAY_us@us_count 0001                           _GLCD_DisplayString 65D2  
                         _A_GlcdFontTable_U8 7D7F                          ?_GLCD_DisplayNumber 000E  
                        ?_GLCD_DisplayString 000A                                      __Hparam 0000  
                                    __Lparam 0000                      __size_of_glcd_BusyCheck 000E  
                                    ___awdiv 6B10                                      ___awmod 6A60  
                                    ___lldiv 69BC                              __size_of___wmul 0026  
                            __size_of_column 0072                               GLCD_Clear@line 0007  
                                    __pcinit 6656                                      __ramtop 0800  
                                    __ptext0 7556                                      __ptext1 6CBA  
                                    __ptext2 683E                                      __ptext3 66AA  
                       ??_GLCD_DisplayNumber 0013                                      __ptext4 6934  
                                    __ptext5 6A60                                      __ptext6 6B10  
                                    __ptext7 716E                                      __ptext8 65D2  
                                    __ptext9 6F0C                                    _GLCD_Init 6702  
                       ??_GLCD_DisplayString 000C                                 __size_of_row 0072  
                           ___awmod@dividend 0001                         end_of_initialization 66A0  
                              __Lmediumconst 797E                              ___lldiv@divisor 0005  
                            ___lldiv@counter 000D                                      postdec1 000FE5  
                                    postdec2 000FDD                                      postinc0 000FEE  
                                    postinc2 000FDE                                    _PORTAbits 000F80  
                                  _PORTCbits 000F82                                    _PORTEbits 000F84  
                              ??_GLCD_Printf 0030                                   ?_GLCD_Init 0001  
                             _GLCD_SetCursor 6934                             _glcd_SelectPage0 64B0  
                           _glcd_SelectPage1 64B6                         GLCD_DisplayLogo@line 0008  
                          __size_of_DELAY_ms 002A                            __size_of_DELAY_us 001E  
                             __end_of___wmul 65A8                                __pidataCOMRAM 64AF  
                             __end_of_column 683E                       __end_of_GLCD_SetCursor 69BC  
                             _glcd_DataWrite 64CA                          start_initialization 6656  
                          _GLCD_GoToNextLine 6500                                  __end_of_row 68B0  
                        __end_of_GLCD_Printf 7556                           ?_GLCD_GoToNextLine 0001  
                             GLCD_Printf@ptr 003E                               GLCD_Printf@str 0032  
                         __end_of_LogoBitMap 7D7F                          ??_GLCD_GoToNextLine 0005  
                             _glcd_BusyCheck 64BC                                     ??___wmul 0005  
                                __pdataBANK0 0060                                     ??_column 0003  
                     __end_of_glcd_DataWrite 64E2                                  ??_GLCD_Init 0008  
                     __size_of_GLCD_GoToPage 0054                       __size_of_GLCD_GoToLine 0020  
                            ?_GLCD_SetCursor 0009                    __end_of_GLCD_GoToNextLine 651E  
                                __pbssCOMRAM 0058                    __size_of_GLCD_DisplayChar 00E6  
                  __size_of_GLCD_DisplayLogo 0084                       __end_of_glcd_BusyCheck 64CA  
                                  __pnvBANK0 009A                             GLCD_Clear@cursor 0006  
                           glcd_CmdWrite@cmd 0003                                __pmediumconst 797E  
                                   ?___awdiv 0001                                     ?___awmod 0001  
                                   ?___lldiv 0001                            GLCD_DisplayChar@i 0008  
                     __size_of_glcd_CmdWrite 0020                              ?_glcd_DataWrite 0001  
                                _GLCD_Printf 716E                                     _DELAY_ms 65A8  
                                   _DELAY_us 64E2                               __size_of_tapas 0252  
                             __size_of_reset 0058                 GLCD_SetCursor@CursorPosition 0009  
                             ___wmul@product 0005                                _GLCD_GoToPage 6602  
                              _GLCD_GoToLine 653E                              ?_glcd_BusyCheck 0001  
                        GLCD_DisplayChar@dat 0007                     __end_of_glcd_SelectPage0 64B6  
                   __end_of_glcd_SelectPage1 64BC                                   _ADCON0bits 000FC2  
                          ___wmul@multiplier 0001                  __size_of_GLCD_DisplayNumber 0262  
                __size_of_GLCD_DisplayString 0030                   __size_of_GLCD_GoToNextLine 001E  
                    GLCD_GoToLine@lineNumber 0005                          GLCD_DisplayNumber@a 001C  
                        GLCD_DisplayNumber@i 0029                                    copy_data0 666A  
                              _glcd_CmdWrite 651E                               ?_GLCD_GoToPage 0001  
                             ?_GLCD_GoToLine 0001                                GLCD_Printf@ch 0040  
                                   __Hrparam 0000                                     __Lrparam 0000  
                           __size_of___awdiv 00C4                             __size_of___awmod 00B0  
                           __size_of___lldiv 00A4                                     _codColor 008E  
                   GLCD_SetCursor@pageNumber 000B                                     __ptext10 69BC  
                                   __ptext11 6BD4                                     __ptext20 68B0  
                                   __ptext12 6500                                     __ptext21 64B6  
                                   __ptext13 67CC                                     __ptext22 64B0  
                                   __ptext14 6582                                     __ptext23 64CA  
                                   __ptext15 6702                                     __ptext24 651E  
                                   __ptext16 675C                                     __ptext25 64BC  
                                   __ptext17 653E                                     __ptext26 64E2  
                                   __ptext18 6602                                     __ptext19 65A8  
                                 _GLCD_Clear 675C                             _GLCD_DisplayChar 6BD4  
                                   _contChar 0070                             _GLCD_DisplayLogo 68B0  
                             ?_glcd_CmdWrite 0001                     GLCD_SetCursor@lineNumber 000A  
       GLCD_DisplayNumber@v_numericSystem_u8 0028                                __size_of_main 0428  
                           ??_GLCD_SetCursor 000A                              ??_GLCD_GoToPage 0004  
                            ??_GLCD_GoToLine 0005                                     tapas@val 0044  
                           ___lldiv@dividend 0001                       _GLCD_DisplayNumber$528 0026  
                                   row@portA 0001                             ??_glcd_DataWrite 0003  
                               ?_GLCD_Printf 002A                             ___lldiv@quotient 0009  
                            ??_glcd_CmdWrite 0003  GLCD_DisplayNumber@v_numOfDigitsToDisplay_u8 0012  
                                ?_GLCD_Clear 0001                             ??_glcd_BusyCheck 0003  
                       GLCD_Printf@v_num_s32 0036                         GLCD_Printf@v_num_s16 0034  
                       GLCD_Printf@v_num_u16 003C                         GLCD_Printf@v_num_u32 0038  
